(dp0
S'64.107.197.150'
p1
(S'          39.82'
p2
S'         -89.64'
p3
tp4
sS'141.224.224.195'
p5
(S'          44.97'
p6
S'         -93.24'
p7
tp8
sS'142.179.248.173'
p9
(S'          45.42'
p10
S'         -75.72'
p11
tp12
sS'64.173.11.240'
p13
(S'          37.79'
p14
S'         -122.40'
p15
tp16
sS'68.97.225.98'
p17
(S'          33.87'
p18
S'         -84.34'
p19
tp20
sS'213.119.168.94'
p21
(S'          52.35'
p22
S'         4.90'
p23
tp24
sS'66.235.32.122'
p25
(S'          47.50'
p26
S'         -122.25'
p27
tp28
sS'213.208.127.236'
p29
(S'          51.83'
p30
S'         -0.83'
p31
tp32
sS'66.157.104.83'
p33
(S'          33.93'
p34
S'         -84.33'
p35
tp36
sS'65.32.87.114'
p37
(S'          38.98'
p38
S'         -77.39'
p39
tp40
sS'24.218.27.76'
p41
(S'          38.98'
p42
S'         -77.39'
p43
tp44
sS'24.126.49.151'
p45
(S'          42.59'
p46
S'         -71.36'
p47
tp48
sS'141.151.210.213'
p49
(S'          38.94'
p50
S'         -77.35'
p51
tp52
sS'62.195.252.112'
p53
(S'          52.35'
p54
S'         4.90'
p55
tp56
sS'62.180.204.1'
p57
(S'          51.50'
p58
S'         10.50'
p59
tp60
sS'24.168.84.10'
p61
(S'          38.98'
p62
S'         -77.39'
p63
tp64
sS'68.84.185.27'
p65
(S'          39.93'
p66
S'         -75.02'
p67
tp68
sS'138.16.239.93'
p69
(S'          41.82'
p70
S'         -71.42'
p71
tp72
sS'130.64.136.141'
p73
(S'          42.40'
p74
S'         -71.12'
p75
tp76
sS'210.24.254.58'
p77
(S'          1.37'
p78
S'         103.80'
p79
tp80
sS'64.62.169.5'
p81
(S'          37.53'
p82
S'         -121.97'
p83
tp84
sS'67.121.4.124'
p85
(S'          37.79'
p86
S'         -122.40'
p87
tp88
sS'157.242.110.70'
p89
(S'          33.96'
p90
S'         -118.39'
p91
tp92
sS'24.44.154.248'
p93
(S'          40.82'
p94
S'         -73.47'
p95
tp96
sS'66.61.124.59'
p97
(S'          38.98'
p98
S'         -77.39'
p99
tp100
sS'68.14.111.33'
p101
(S'          41.70'
p102
S'         -71.45'
p103
tp104
sS'68.97.5.52'
p105
(S'          33.87'
p106
S'         -84.34'
p107
tp108
sS'217.155.42.207'
p109
(S'          52.35'
p110
S'         4.90'
p111
tp112
sS'172.148.186.160'
p113
(S'          38.94'
p114
S'         -77.35'
p115
tp116
sS'24.203.60.225'
p117
(S'          45.50'
p118
S'         -73.60'
p119
tp120
sS'128.187.243.0'
p121
(S'          40.23'
p122
S'         -111.68'
p123
tp124
sS'129.100.209.218'
p125
(S'          42.97'
p126
S'         -81.25'
p127
tp128
sS'80.108.3.54'
p129
(S'          52.35'
p130
S'         4.90'
p131
tp132
sS'217.121.235.126'
p133
(S'          52.35'
p134
S'         4.90'
p135
tp136
sS'81.31.127.119'
p137
(S'          52.35'
p138
S'         4.90'
p139
tp140
sS'66.41.85.156'
p141
(S'          42.59'
p142
S'         -71.36'
p143
tp144
sS'67.167.50.158'
p145
(S'          38.88'
p146
S'         -77.44'
p147
tp148
sS'62.221.247.121'
p149
(S'          52.35'
p150
S'         4.90'
p151
tp152
sS'67.123.231.174'
p153
(S'          37.79'
p154
S'         -122.40'
p155
tp156
sS'216.165.36.181'
p157
(S'          40.73'
p158
S'         -74.00'
p159
tp160
sS'81.64.42.149'
p161
(S'          52.35'
p162
S'         4.90'
p163
tp164
sS'134.48.216.33'
p165
(S'          43.05'
p166
S'         -87.90'
p167
tp168
sS'161.253.31.119'
p169
(S'          38.90'
p170
S'         -77.05'
p171
tp172
sS'24.127.154.95'
p173
(S'          42.59'
p174
S'         -71.36'
p175
tp176
sS'24.129.204.105'
p177
(S'          42.59'
p178
S'         -71.36'
p179
tp180
sS'81.107.197.22'
p181
(S'          52.35'
p182
S'         4.90'
p183
tp184
sS'62.178.23.249'
p185
(S'          52.35'
p186
S'         4.90'
p187
tp188
sS'66.32.252.141'
p189
(S'          34.15'
p190
S'         -118.09'
p191
tp192
sS'128.230.168.8'
p193
(S'          43.04'
p194
S'         -76.15'
p195
tp196
sS'68.23.34.149'
p197
(S'          38.88'
p198
S'         -77.44'
p199
tp200
sS'62.16.156.104'
p201
(S'          52.35'
p202
S'         4.90'
p203
tp204
sS'217.80.80.218'
p205
(S'          52.35'
p206
S'         4.90'
p207
tp208
sS'129.100.206.89'
p209
(S'          42.97'
p210
S'         -81.25'
p211
tp212
sS'128.61.66.136'
p213
(S'          33.75'
p214
S'         -84.39'
p215
tp216
sS'12.210.181.18'
p217
(S'          40.86'
p218
S'         -74.41'
p219
tp220
sS'199.172.211.45'
p221
(S'          32.30'
p222
S'         -64.80'
p223
tp224
sS'68.49.154.180'
p225
(S'          38.88'
p226
S'         -76.91'
p227
tp228
sS'158.136.163.30'
p229
(S'          43.76'
p230
S'         -71.68'
p231
tp232
sS'67.166.171.63'
p233
(S'          38.88'
p234
S'         -77.44'
p235
tp236
sS'64.203.47.157'
p237
(S'          -25.00'
p238
S'         135.00'
p239
tp240
sS'68.73.124.210'
p241
(S'          -25.00'
p242
S'         135.00'
p243
tp244
sS'82.37.173.12'
p245
(S'          33.98'
p246
S'         -118.45'
p247
tp248
sS'130.212.229.104'
p249
(S'          37.72'
p250
S'         -122.48'
p251
tp252
sS'141.151.95.172'
p253
(S'          38.94'
p254
S'         -77.35'
p255
tp256
sS'80.28.208.34'
p257
(S'          52.35'
p258
S'         4.90'
p259
tp260
sS'158.109.46.68'
p261
(S'          41.42'
p262
S'         2.17'
p263
tp264
sS'220.255.111.151'
p265
(S'          -35.32'
p266
S'         150.40'
p267
tp268
sS'24.175.62.32'
p269
(S'          38.98'
p270
S'         -77.39'
p271
tp272
sS'217.255.124.9'
p273
(S'          52.35'
p274
S'         4.90'
p275
tp276
sS'80.213.143.194'
p277
(S'          52.35'
p278
S'         4.90'
p279
tp280
sS'24.44.9.210'
p281
(S'          40.76'
p282
S'         -73.52'
p283
tp284
sS'24.49.28.15'
p285
(S'          41.78'
p286
S'         -78.00'
p287
tp288
sS'156.12.76.139'
p289
(S'          40.52'
p290
S'         -75.78'
p291
tp292
sS'199.247.236.4'
p293
(S'          60.72'
p294
S'         -135.05'
p295
tp296
sS'65.32.40.250'
p297
(S'          38.98'
p298
S'         -77.39'
p299
tp300
sS'68.236.30.34'
p301
(S'          38.88'
p302
S'         -77.44'
p303
tp304
sS'213.245.76.63'
p305
(S'          52.35'
p306
S'         4.90'
p307
tp308
sS'81.86.112.214'
p309
(S'          52.35'
p310
S'         4.90'
p311
tp312
sS'213.36.152.230'
p313
(S'          52.35'
p314
S'         4.90'
p315
tp316
sS'138.87.140.32'
p317
(S'          40.51'
p318
S'         -88.99'
p319
tp320
sS'217.227.15.46'
p321
(S'          52.35'
p322
S'         4.90'
p323
tp324
sS'65.30.182.73'
p325
(S'          38.98'
p326
S'         -77.39'
p327
tp328
sS'131.128.140.163'
p329
(S'          41.48'
p330
S'         -71.53'
p331
tp332
sS'129.2.194.208'
p333
(S'          39.00'
p334
S'         -76.93'
p335
tp336
sS'200.180.150.42'
p337
(S'          -25.00'
p338
S'         135.00'
p339
tp340
sS'81.248.112.26'
p341
(S'          52.35'
p342
S'         4.90'
p343
tp344
sS'81.51.187.238'
p345
(S'          52.35'
p346
S'         4.90'
p347
tp348
sS'81.104.58.176'
p349
(S'          52.35'
p350
S'         4.90'
p351
tp352
sS'62.75.147.132'
p353
(S'          52.35'
p354
S'         4.90'
p355
tp356
sS'24.58.73.194'
p357
(S'          38.98'
p358
S'         -77.39'
p359
tp360
sS'137.45.63.196'
p361
(S'          38.00'
p362
S'         -98.00'
p363
tp364
sS'67.161.22.208'
p365
(S'          -25.00'
p366
S'         135.00'
p367
tp368
sS'195.186.247.59'
p369
(S'          47.38'
p370
S'         8.55'
p371
tp372
sS'207.237.106.250'
p373
(S'          40.37'
p374
S'         -74.64'
p375
tp376
sS'216.31.21.205'
p377
(S'          32.32'
p378
S'         -106.75'
p379
tp380
sS'68.43.245.74'
p381
(S'          41.98'
p382
S'         -84.65'
p383
tp384
sS'68.168.182.202'
p385
(S'          -25.00'
p386
S'         135.00'
p387
tp388
sS'137.165.213.23'
p389
(S'          42.71'
p390
S'         -73.20'
p391
tp392
sS'68.38.217.253'
p393
(S'          40.60'
p394
S'         -74.45'
p395
tp396
sS'141.84.139.151'
p397
(S'          48.13'
p398
S'         11.58'
p399
tp400
sS'213.23.133.63'
p401
(S'          52.35'
p402
S'         4.90'
p403
tp404
sS'203.213.99.58'
p405
(S'          -35.32'
p406
S'         150.40'
p407
tp408
sS'82.43.194.103'
p409
(S'          33.98'
p410
S'         -118.45'
p411
tp412
sS'24.50.128.200'
p413
(S'          41.78'
p414
S'         -78.00'
p415
tp416
sS'217.225.242.63'
p417
(S'          52.35'
p418
S'         4.90'
p419
tp420
sS'217.235.226.153'
p421
(S'          51.50'
p422
S'         10.50'
p423
tp424
sS'128.2.70.198'
p425
(S'          40.44'
p426
S'         -79.87'
p427
tp428
sS'200.72.52.25'
p429
(S'          -25.00'
p430
S'         135.00'
p431
tp432
sS'209.112.32.114'
p433
(S'          43.63'
p434
S'         -79.60'
p435
tp436
sS'67.112.27.108'
p437
(S'          37.76'
p438
S'         -121.95'
p439
tp440
sS'202.72.157.146'
p441
(S'          -31.97'
p442
S'         115.82'
p443
tp444
sS'217.155.83.150'
p445
(S'          52.35'
p446
S'         4.90'
p447
tp448
sS'65.49.65.45'
p449
(S'          38.88'
p450
S'         -77.44'
p451
tp452
sS'216.249.98.135'
p453
(S'          34.15'
p454
S'         -118.09'
p455
tp456
sS'216.145.70.254'
p457
(S'          36.65'
p458
S'         -82.61'
p459
tp460
sS'4.72.72.57'
p461
(S'          42.38'
p462
S'         -71.13'
p463
tp464
sS'68.121.190.36'
p465
(S'          38.88'
p466
S'         -77.44'
p467
tp468
sS'68.165.199.206'
p469
(S'          38.88'
p470
S'         -77.44'
p471
tp472
sS'81.82.120.105'
p473
(S'          52.35'
p474
S'         4.90'
p475
tp476
sS'66.131.169.79'
p477
(S'          38.88'
p478
S'         -77.44'
p479
tp480
sS'68.110.231.160'
p481
(S'          38.88'
p482
S'         -77.44'
p483
tp484
sS'202.181.20.95'
p485
(S'          -35.32'
p486
S'         150.40'
p487
tp488
sS'24.58.13.79'
p489
(S'          38.98'
p490
S'         -77.39'
p491
tp492
sS'67.122.208.192'
p493
(S'          37.79'
p494
S'         -122.40'
p495
tp496
sS'80.34.45.17'
p497
(S'          40.00'
p498
S'         -4.00'
p499
tp500
sS'4.4.64.53'
p501
(S'          42.48'
p502
S'         -71.16'
p503
tp504
sS'216.165.21.12'
p505
(S'          40.73'
p506
S'         -74.00'
p507
tp508
sS'213.73.152.179'
p509
(S'          52.35'
p510
S'         4.90'
p511
tp512
sS'66.47.67.212'
p513
(S'          34.15'
p514
S'         -118.09'
p515
tp516
sS'67.82.165.12'
p517
(S'          40.76'
p518
S'         -73.52'
p519
tp520
sS'68.32.6.210'
p521
(S'          39.93'
p522
S'         -75.02'
p523
tp524
sS'80.200.5.74'
p525
(S'          52.35'
p526
S'         4.90'
p527
tp528
sS'217.8.154.101'
p529
(S'          62.00'
p530
S'         10.00'
p531
tp532
sS'4.35.109.84'
p533
(S'          42.48'
p534
S'         -71.16'
p535
tp536
sS'217.235.112.80'
p537
(S'          52.35'
p538
S'         4.90'
p539
tp540
sS'204.85.7.174'
p541
(S'          35.77'
p542
S'         -78.63'
p543
tp544
sS'156.12.134.169'
p545
(S'          40.52'
p546
S'         -75.78'
p547
tp548
sS'24.244.43.226'
p549
(S'          50.05'
p550
S'         -110.68'
p551
tp552
sS'217.231.150.237'
p553
(S'          52.35'
p554
S'         4.90'
p555
tp556
sS'207.6.237.82'
p557
(S'          45.42'
p558
S'         -75.72'
p559
tp560
sS'129.119.161.182'
p561
(S'          32.79'
p562
S'         -96.80'
p563
tp564
sS'65.96.37.154'
p565
(S'          42.59'
p566
S'         -71.36'
p567
tp568
sS'213.114.197.134'
p569
(S'          52.35'
p570
S'         4.90'
p571
tp572
sS'80.126.56.145'
p573
(S'          52.35'
p574
S'         4.90'
p575
tp576
sS'64.222.50.209'
p577
(S'          38.94'
p578
S'         -77.35'
p579
tp580
sS'128.104.54.81'
p581
(S'          43.08'
p582
S'         -89.41'
p583
tp584
sS'65.25.255.150'
p585
(S'          38.98'
p586
S'         -77.39'
p587
tp588
sS'64.38.94.72'
p589
(S'          33.99'
p590
S'         -117.37'
p591
tp592
sS'24.60.142.190'
p593
(S'          42.59'
p594
S'         -71.36'
p595
tp596
sS'134.157.88.36'
p597
(S'          48.87'
p598
S'         2.33'
p599
tp600
sS'81.128.6.68'
p601
(S'          52.35'
p602
S'         4.90'
p603
tp604
sS'210.24.124.175'
p605
(S'          -35.32'
p606
S'         150.40'
p607
tp608
sS'12.252.66.31'
p609
(S'          40.40'
p610
S'         -74.11'
p611
tp612
sS'68.105.83.177'
p613
(S'          33.87'
p614
S'         -84.34'
p615
tp616
sS'80.212.190.68'
p617
(S'          52.35'
p618
S'         4.90'
p619
tp620
sS'62.119.64.42'
p621
(S'          59.07'
p622
S'         16.35'
p623
tp624
sS'217.44.224.113'
p625
(S'          52.35'
p626
S'         4.90'
p627
tp628
sS'67.86.209.19'
p629
(S'          -25.00'
p630
S'         135.00'
p631
tp632
sS'165.234.218.253'
p633
(S'          46.82'
p634
S'         -100.77'
p635
tp636
sS'65.110.235.135'
p637
(S'          38.88'
p638
S'         -77.44'
p639
tp640
sS'137.99.186.241'
p641
(S'          38.00'
p642
S'         -98.00'
p643
tp644
sS'140.180.150.36'
p645
(S'          40.35'
p646
S'         -74.66'
p647
tp648
sS'24.208.181.187'
p649
(S'          38.98'
p650
S'         -77.39'
p651
tp652
sS'4.60.187.113'
p653
(S'          32.87'
p654
S'         -96.99'
p655
tp656
sS'217.208.143.170'
p657
(S'          52.35'
p658
S'         4.90'
p659
tp660
sS'12.230.210.250'
p661
(S'          40.40'
p662
S'         -74.11'
p663
tp664
sS'140.180.160.208'
p665
(S'          40.35'
p666
S'         -74.66'
p667
tp668
sS'139.78.10.14'
p669
(S'          36.10'
p670
S'         -97.06'
p671
tp672
sS'194.78.217.199'
p673
(S'          50.83'
p674
S'         4.33'
p675
tp676
sS'200.98.38.113'
p677
(S'          -34.92'
p678
S'         -56.17'
p679
tp680
sS'81.69.57.152'
p681
(S'          52.35'
p682
S'         4.90'
p683
tp684
sS'24.52.2.181'
p685
(S'          41.78'
p686
S'         -78.00'
p687
tp688
sS'24.70.94.217'
p689
(S'          51.08'
p690
S'         -114.08'
p691
tp692
sS'213.79.33.216'
p693
(S'          52.35'
p694
S'         4.90'
p695
tp696
sS'65.94.162.113'
p697
(S'          45.50'
p698
S'         -73.60'
p699
tp700
sS'81.6.44.13'
p701
(S'          52.35'
p702
S'         4.90'
p703
tp704
sS'24.71.17.17'
p705
(S'          51.08'
p706
S'         -114.08'
p707
tp708
sS'67.33.171.124'
p709
(S'          33.93'
p710
S'         -84.33'
p711
tp712
sS'12.211.154.136'
p713
(S'          40.40'
p714
S'         -74.11'
p715
tp716
sS'81.166.20.60'
p717
(S'          52.35'
p718
S'         4.90'
p719
tp720
sS'128.36.82.63'
p721
(S'          41.31'
p722
S'         -72.93'
p723
tp724
sS'200.43.168.82'
p725
(S'          -25.00'
p726
S'         135.00'
p727
tp728
sS'24.71.17.180'
p729
(S'          51.08'
p730
S'         -114.08'
p731
tp732
sS'129.170.239.94'
p733
(S'          43.70'
p734
S'         -72.28'
p735
tp736
sS'64.229.252.233'
p737
(S'          45.40'
p738
S'         -71.90'
p739
tp740
sS'67.20.234.103'
p741
(S'          -25.00'
p742
S'         135.00'
p743
tp744
sS'172.145.1.7'
p745
(S'          38.93'
p746
S'         -77.26'
p747
tp748
sS'216.232.214.249'
p749
(S'          49.22'
p750
S'         -123.10'
p751
tp752
sS'204.85.5.36'
p753
(S'          38.00'
p754
S'         -98.00'
p755
tp756
sS'193.166.89.159'
p757
(S'          52.35'
p758
S'         4.90'
p759
tp760
sS'200.104.112.19'
p761
(S'          -34.92'
p762
S'         -56.17'
p763
tp764
sS'12.233.122.2'
p765
(S'          40.86'
p766
S'         -74.41'
p767
tp768
sS'150.250.192.72'
p769
(S'          39.71'
p770
S'         -75.12'
p771
tp772
sS'66.25.112.148'
p773
(S'          38.98'
p774
S'         -77.39'
p775
tp776
sS'80.204.116.108'
p777
(S'          44.90'
p778
S'         8.87'
p779
tp780
sS'140.247.143.202'
p781
(S'          42.38'
p782
S'         -71.13'
p783
tp784
sS'139.55.233.104'
p785
(S'          40.79'
p786
S'         -96.69'
p787
tp788
sS'67.70.103.81'
p789
(S'          -25.00'
p790
S'         135.00'
p791
tp792
sS'134.173.121.73'
p793
(S'          34.11'
p794
S'         -117.72'
p795
tp796
sS'199.8.237.17'
p797
(S'          41.58'
p798
S'         -85.84'
p799
tp800
sS'68.144.224.28'
p801
(S'          51.08'
p802
S'         -114.08'
p803
tp804
sS'68.161.244.25'
p805
(S'          -25.00'
p806
S'         135.00'
p807
tp808
sS'82.64.211.63'
p809
(S'          33.98'
p810
S'         -118.45'
p811
tp812
sS'62.99.150.168'
p813
(S'          52.35'
p814
S'         4.90'
p815
tp816
sS'68.69.91.208'
p817
(S'          41.78'
p818
S'         -78.00'
p819
tp820
sS'81.203.51.14'
p821
(S'          52.35'
p822
S'         4.90'
p823
tp824
sS'66.125.135.208'
p825
(S'          37.76'
p826
S'         -121.95'
p827
tp828
sS'12.240.223.75'
p829
(S'          40.40'
p830
S'         -74.11'
p831
tp832
sS'66.171.145.37'
p833
(S'          -25.00'
p834
S'         135.00'
p835
tp836
sS'66.76.151.200'
p837
(S'          32.33'
p838
S'         -95.29'
p839
tp840
sS'203.26.25.111'
p841
(S'          -35.32'
p842
S'         150.40'
p843
tp844
sS'81.80.199.234'
p845
(S'          52.35'
p846
S'         4.90'
p847
tp848
sS'217.155.203.217'
p849
(S'          52.35'
p850
S'         4.90'
p851
tp852
sS'66.157.99.126'
p853
(S'          33.93'
p854
S'         -84.33'
p855
tp856
sS'213.46.121.124'
p857
(S'          52.35'
p858
S'         4.90'
p859
tp860
sS'68.39.76.140'
p861
(S'          39.93'
p862
S'         -75.02'
p863
tp864
sS'216.193.177.55'
p865
(S'          40.61'
p866
S'         -75.48'
p867
tp868
sS'148.243.56.11'
p869
(S'          19.40'
p870
S'         -99.15'
p871
tp872
sS'80.213.142.87'
p873
(S'          52.35'
p874
S'         4.90'
p875
tp876
sS'129.174.186.74'
p877
(S'          38.85'
p878
S'         -77.32'
p879
tp880
sS'24.232.253.18'
p881
(S'          -34.67'
p882
S'         -58.50'
p883
tp884
sS'69.22.224.218'
p885
(S'          -25.00'
p886
S'         135.00'
p887
tp888
sS'213.73.194.62'
p889
(S'          51.92'
p890
S'         4.48'
p891
tp892
sS'152.10.182.101'
p893
(S'          36.21'
p894
S'         -81.67'
p895
tp896
sS'207.6.34.30'
p897
(S'          45.42'
p898
S'         -75.72'
p899
tp900
sS'62.178.207.200'
p901
(S'          52.35'
p902
S'         4.90'
p903
tp904
sS'68.171.129.76'
p905
(S'          38.88'
p906
S'         -77.44'
p907
tp908
sS'158.152.74.64'
p909
(S'          40.79'
p910
S'         -73.94'
p911
tp912
sS'81.170.189.96'
p913
(S'          52.35'
p914
S'         4.90'
p915
tp916
sS'128.23.40.135'
p917
(S'          32.78'
p918
S'         -79.94'
p919
tp920
sS'24.200.97.152'
p921
(S'          45.50'
p922
S'         -73.60'
p923
tp924
sS'66.222.161.20'
p925
(S'          49.27'
p926
S'         -122.97'
p927
tp928
sS'69.132.9.197'
p929
(S'          -25.00'
p930
S'         135.00'
p931
tp932
sS'24.54.127.75'
p933
(S'          41.78'
p934
S'         -78.00'
p935
tp936
sS'66.168.209.187'
p937
(S'          38.61'
p938
S'         -90.44'
p939
tp940
sS'130.64.147.119'
p941
(S'          42.40'
p942
S'         -71.12'
p943
tp944
sS'131.211.33.17'
p945
(S'          52.10'
p946
S'         5.12'
p947
tp948
sS'68.65.202.130'
p949
(S'          41.78'
p950
S'         -78.00'
p951
tp952
sS'213.97.178.139'
p953
(S'          52.35'
p954
S'         4.90'
p955
tp956
sS'12.248.254.78'
p957
(S'          40.86'
p958
S'         -74.41'
p959
tp960
sS'24.245.42.94'
p961
(S'          38.98'
p962
S'         -77.39'
p963
tp964
sS'212.158.197.215'
p965
(S'          52.35'
p966
S'         4.90'
p967
tp968
sS'24.163.68.240'
p969
(S'          38.98'
p970
S'         -77.39'
p971
tp972
sS'204.210.201.55'
p973
(S'          38.98'
p974
S'         -77.39'
p975
tp976
sS'68.40.72.70'
p977
(S'          41.98'
p978
S'         -84.65'
p979
tp980
sS'68.65.224.88'
p981
(S'          41.78'
p982
S'         -78.00'
p983
tp984
sS'64.236.185.35'
p985
(S'          38.94'
p986
S'         -77.35'
p987
tp988
sS'63.225.109.140'
p989
(S'          45.00'
p990
S'         -93.26'
p991
tp992
sS'81.132.31.231'
p993
(S'          52.35'
p994
S'         4.90'
p995
tp996
sS'218.223.190.29'
p997
(S'          -35.32'
p998
S'         150.40'
p999
tp1000
sS'81.83.3.146'
p1001
(S'          52.35'
p1002
S'         4.90'
p1003
tp1004
sS'213.84.96.143'
p1005
(S'          52.35'
p1006
S'         4.90'
p1007
tp1008
sS'24.69.39.125'
p1009
(S'          51.08'
p1010
S'         -114.08'
p1011
tp1012
sS'151.38.9.230'
p1013
(S'          45.47'
p1014
S'         9.20'
p1015
tp1016
sS'195.135.149.88'
p1017
(S'          50.93'
p1018
S'         6.95'
p1019
tp1020
sS'128.205.226.200'
p1021
(S'          42.90'
p1022
S'         -78.88'
p1023
tp1024
sS'80.137.32.248'
p1025
(S'          52.35'
p1026
S'         4.90'
p1027
tp1028
sS'68.165.43.66'
p1029
(S'          38.88'
p1030
S'         -77.44'
p1031
tp1032
sS'68.166.178.237'
p1033
(S'          38.88'
p1034
S'         -77.44'
p1035
tp1036
sS'203.59.195.176'
p1037
(S'          -31.97'
p1038
S'         115.82'
p1039
tp1040
sS'216.38.189.81'
p1041
(S'          27.37'
p1042
S'         -82.54'
p1043
tp1044
sS'24.29.124.173'
p1045
(S'          38.98'
p1046
S'         -77.39'
p1047
tp1048
sS'66.67.200.158'
p1049
(S'          38.98'
p1050
S'         -77.39'
p1051
tp1052
sS'193.251.22.194'
p1053
(S'          52.35'
p1054
S'         4.90'
p1055
tp1056
sS'66.87.87.170'
p1057
(S'          38.99'
p1058
S'         -94.67'
p1059
tp1060
sS'69.3.24.54'
p1061
(S'          37.35'
p1062
S'         -121.95'
p1063
tp1064
sS'198.178.132.254'
p1065
(S'          40.48'
p1066
S'         -88.99'
p1067
tp1068
sS'80.60.20.199'
p1069
(S'          52.35'
p1070
S'         4.90'
p1071
tp1072
sS'68.165.5.219'
p1073
(S'          -25.00'
p1074
S'         135.00'
p1075
tp1076
sS'198.178.132.253'
p1077
(S'          40.48'
p1078
S'         -88.99'
p1079
tp1080
sS'209.211.130.194'
p1081
(S'          33.65'
p1082
S'         -117.92'
p1083
tp1084
sS'24.170.180.160'
p1085
(S'          52.50'
p1086
S'         5.75'
p1087
tp1088
sS'210.15.214.2'
p1089
(S'          -37.83'
p1090
S'         145.07'
p1091
tp1092
sS'24.147.135.222'
p1093
(S'          42.59'
p1094
S'         -71.36'
p1095
tp1096
sS'204.210.79.179'
p1097
(S'          38.98'
p1098
S'         -77.39'
p1099
tp1100
sS'68.166.203.76'
p1101
(S'          -25.00'
p1102
S'         135.00'
p1103
tp1104
sS'158.104.78.125'
p1105
(S'          44.93'
p1106
S'         -122.98'
p1107
tp1108
sS'200.24.99.163'
p1109
(S'          -34.92'
p1110
S'         -56.17'
p1111
tp1112
sS'217.187.166.174'
p1113
(S'          52.35'
p1114
S'         4.90'
p1115
tp1116
sS'152.3.42.96'
p1117
(S'          36.00'
p1118
S'         -78.94'
p1119
tp1120
sS'213.93.167.132'
p1121
(S'          52.50'
p1122
S'         5.75'
p1123
tp1124
sS'68.66.154.219'
p1125
(S'          41.78'
p1126
S'         -78.00'
p1127
tp1128
sS'141.150.73.45'
p1129
(S'          38.94'
p1130
S'         -77.35'
p1131
tp1132
sS'172.137.253.177'
p1133
(S'          38.94'
p1134
S'         -77.35'
p1135
tp1136
sS'80.177.117.235'
p1137
(S'          52.35'
p1138
S'         4.90'
p1139
tp1140
sS'216.39.139.225'
p1141
(S'          47.62'
p1142
S'         -122.17'
p1143
tp1144
sS'4.62.194.128'
p1145
(S'          32.87'
p1146
S'         -96.99'
p1147
tp1148
sS'65.43.163.188'
p1149
(S'          33.03'
p1150
S'         -96.74'
p1151
tp1152
sS'12.208.99.160'
p1153
(S'          40.40'
p1154
S'         -74.11'
p1155
tp1156
sS'193.13.43.130'
p1157
(S'          52.35'
p1158
S'         4.90'
p1159
tp1160
sS'217.128.28.213'
p1161
(S'          43.50'
p1162
S'         -1.47'
p1163
tp1164
sS'82.35.134.36'
p1165
(S'          33.98'
p1166
S'         -118.45'
p1167
tp1168
sS'69.3.118.185'
p1169
(S'          37.35'
p1170
S'         -121.95'
p1171
tp1172
sS'65.50.151.47'
p1173
(S'          38.88'
p1174
S'         -77.44'
p1175
tp1176
sS'67.121.120.14'
p1177
(S'          37.79'
p1178
S'         -122.40'
p1179
tp1180
sS'62.194.192.94'
p1181
(S'          52.35'
p1182
S'         4.90'
p1183
tp1184
sS'212.234.14.238'
p1185
(S'          48.88'
p1186
S'         2.27'
p1187
tp1188
sS'65.50.16.195'
p1189
(S'          38.88'
p1190
S'         -77.44'
p1191
tp1192
sS'65.16.252.165'
p1193
(S'          39.08'
p1194
S'         -94.59'
p1195
tp1196
sS'132.241.21.151'
p1197
(S'          39.73'
p1198
S'         -121.82'
p1199
tp1200
sS'168.226.15.89'
p1201
(S'          -34.67'
p1202
S'         -58.50'
p1203
tp1204
sS'134.69.127.226'
p1205
(S'          34.13'
p1206
S'         -118.21'
p1207
tp1208
sS'217.225.207.7'
p1209
(S'          51.50'
p1210
S'         10.50'
p1211
tp1212
sS'66.41.229.55'
p1213
(S'          -25.00'
p1214
S'         135.00'
p1215
tp1216
sS'24.199.142.218'
p1217
(S'          38.98'
p1218
S'         -77.39'
p1219
tp1220
sS'80.102.128.138'
p1221
(S'          52.35'
p1222
S'         4.90'
p1223
tp1224
sS'152.3.20.56'
p1225
(S'          36.00'
p1226
S'         -78.94'
p1227
tp1228
sS'216.102.116.172'
p1229
(S'          37.76'
p1230
S'         -122.40'
p1231
tp1232
sS'12.176.128.91'
p1233
(S'          40.40'
p1234
S'         -74.11'
p1235
tp1236
sS'220.240.65.120'
p1237
(S'          -35.32'
p1238
S'         150.40'
p1239
tp1240
sS'196.40.16.133'
p1241
(S'          9.93'
p1242
S'         -84.08'
p1243
tp1244
sS'140.211.113.163'
p1245
(S'          44.04'
p1246
S'         -123.06'
p1247
tp1248
sS'24.200.171.180'
p1249
(S'          45.50'
p1250
S'         -73.60'
p1251
tp1252
sS'200.176.41.68'
p1253
(S'          -34.92'
p1254
S'         -56.17'
p1255
tp1256
sS'24.208.77.232'
p1257
(S'          38.98'
p1258
S'         -77.39'
p1259
tp1260
sS'203.131.137.198'
p1261
(S'          -35.32'
p1262
S'         150.40'
p1263
tp1264
sS'12.146.245.253'
p1265
(S'          33.96'
p1266
S'         -81.07'
p1267
tp1268
sS'80.109.110.30'
p1269
(S'          52.35'
p1270
S'         4.90'
p1271
tp1272
sS'66.93.182.16'
p1273
(S'          47.62'
p1274
S'         -122.34'
p1275
tp1276
sS'205.201.8.111'
p1277
(S'          40.44'
p1278
S'         -79.95'
p1279
tp1280
sS'213.22.234.102'
p1281
(S'          52.35'
p1282
S'         4.90'
p1283
tp1284
sS'144.118.209.38'
p1285
(S'          39.96'
p1286
S'         -75.20'
p1287
tp1288
sS'220.255.145.4'
p1289
(S'          -35.32'
p1290
S'         150.40'
p1291
tp1292
sS'156.34.70.71'
p1293
(S'          45.27'
p1294
S'         -66.05'
p1295
tp1296
sS'134.10.25.42'
p1297
(S'          45.48'
p1298
S'         -122.64'
p1299
tp1300
sS'68.147.143.132'
p1301
(S'          51.08'
p1302
S'         -114.08'
p1303
tp1304
sS'80.254.186.217'
p1305
(S'          47.48'
p1306
S'         8.22'
p1307
tp1308
sS'62.254.150.69'
p1309
(S'          52.35'
p1310
S'         4.90'
p1311
tp1312
sS'195.157.178.7'
p1313
(S'          52.35'
p1314
S'         4.90'
p1315
tp1316
sS'68.170.192.184'
p1317
(S'          38.88'
p1318
S'         -77.44'
p1319
tp1320
sS'12.209.198.225'
p1321
(S'          40.40'
p1322
S'         -74.11'
p1323
tp1324
sS'195.75.97.190'
p1325
(S'          52.35'
p1326
S'         4.90'
p1327
tp1328
sS'24.174.128.169'
p1329
(S'          38.98'
p1330
S'         -77.39'
p1331
tp1332
sS'66.166.225.41'
p1333
(S'          37.35'
p1334
S'         -121.95'
p1335
tp1336
sS'165.82.76.74'
p1337
(S'          40.01'
p1338
S'         -75.31'
p1339
tp1340
sS'216.128.231.85'
p1341
(S'          43.02'
p1342
S'         -111.03'
p1343
tp1344
sS'134.114.151.121'
p1345
(S'          35.19'
p1346
S'         -111.66'
p1347
tp1348
sS'62.166.12.244'
p1349
(S'          52.35'
p1350
S'         4.90'
p1351
tp1352
sS'141.218.208.106'
p1353
(S'          42.26'
p1354
S'         -85.61'
p1355
tp1356
sS'67.94.231.186'
p1357
(S'          32.88'
p1358
S'         -96.75'
p1359
tp1360
sS'62.101.126.208'
p1361
(S'          52.35'
p1362
S'         4.90'
p1363
tp1364
sS'129.19.139.33'
p1365
(S'          40.05'
p1366
S'         -105.21'
p1367
tp1368
sS'62.101.126.203'
p1369
(S'          52.35'
p1370
S'         4.90'
p1371
tp1372
sS'169.237.234.148'
p1373
(S'          38.72'
p1374
S'         -121.43'
p1375
tp1376
sS'24.168.234.39'
p1377
(S'          38.98'
p1378
S'         -77.39'
p1379
tp1380
sS'24.84.193.53'
p1381
(S'          51.08'
p1382
S'         -114.08'
p1383
tp1384
sS'80.111.166.201'
p1385
(S'          52.35'
p1386
S'         4.90'
p1387
tp1388
sS'208.51.54.67'
p1389
(S'          43.08'
p1390
S'         -77.63'
p1391
tp1392
sS'200.138.246.28'
p1393
(S'          -34.92'
p1394
S'         -56.17'
p1395
tp1396
sS'165.123.189.105'
p1397
(S'          39.96'
p1398
S'         -75.20'
p1399
tp1400
sS'151.205.166.25'
p1401
(S'          38.94'
p1402
S'         -77.35'
p1403
tp1404
sS'62.234.32.255'
p1405
(S'          52.35'
p1406
S'         4.90'
p1407
tp1408
sS'64.173.42.142'
p1409
(S'          37.79'
p1410
S'         -122.40'
p1411
tp1412
sS'213.65.108.4'
p1413
(S'          52.35'
p1414
S'         4.90'
p1415
tp1416
sS'80.38.172.227'
p1417
(S'          52.35'
p1418
S'         4.90'
p1419
tp1420
sS'140.232.145.156'
p1421
(S'          42.25'
p1422
S'         -71.81'
p1423
tp1424
sS'200.36.156.15'
p1425
(S'          -25.00'
p1426
S'         135.00'
p1427
tp1428
sS'217.59.54.159'
p1429
(S'          42.83'
p1430
S'         12.83'
p1431
tp1432
sS'62.131.26.246'
p1433
(S'          52.15'
p1434
S'         5.38'
p1435
tp1436
sS'12.230.142.153'
p1437
(S'          40.40'
p1438
S'         -74.11'
p1439
tp1440
sS'68.122.50.159'
p1441
(S'          38.88'
p1442
S'         -77.44'
p1443
tp1444
sS'209.86.250.144'
p1445
(S'          34.15'
p1446
S'         -118.09'
p1447
tp1448
sS'155.68.68.211'
p1449
(S'          40.03'
p1450
S'         -76.28'
p1451
tp1452
sS'144.118.214.48'
p1453
(S'          39.96'
p1454
S'         -75.20'
p1455
tp1456
sS'68.110.206.28'
p1457
(S'          38.88'
p1458
S'         -77.44'
p1459
tp1460
sS'213.47.10.151'
p1461
(S'          52.35'
p1462
S'         4.90'
p1463
tp1464
sS'216.58.95.101'
p1465
(S'          45.32'
p1466
S'         -75.90'
p1467
tp1468
sS'67.30.7.68'
p1469
(S'          39.98'
p1470
S'         -105.15'
p1471
tp1472
sS'130.126.59.253'
p1473
(S'          40.11'
p1474
S'         -88.20'
p1475
tp1476
sS'24.130.167.4'
p1477
(S'          38.98'
p1478
S'         -77.39'
p1479
tp1480
sS'67.119.57.158'
p1481
(S'          37.79'
p1482
S'         -122.40'
p1483
tp1484
sS'66.37.70.24'
p1485
(S'          36.92'
p1486
S'         -80.32'
p1487
tp1488
sS'80.60.188.41'
p1489
(S'          52.15'
p1490
S'         5.38'
p1491
tp1492
sS'66.75.122.194'
p1493
(S'          38.98'
p1494
S'         -77.39'
p1495
tp1496
sS'65.50.65.41'
p1497
(S'          -25.00'
p1498
S'         135.00'
p1499
tp1500
sS'212.41.82.156'
p1501
(S'          52.35'
p1502
S'         4.90'
p1503
tp1504
sS'138.130.18.237'
p1505
(S'          -31.97'
p1506
S'         115.82'
p1507
tp1508
sS'67.21.89.137'
p1509
(S'          38.88'
p1510
S'         -77.44'
p1511
tp1512
sS'209.82.123.94'
p1513
(S'          60.00'
p1514
S'         -96.00'
p1515
tp1516
sS'12.226.22.174'
p1517
(S'          40.86'
p1518
S'         -74.41'
p1519
tp1520
sS'67.9.183.202'
p1521
(S'          38.98'
p1522
S'         -77.39'
p1523
tp1524
sS'81.56.189.33'
p1525
(S'          52.35'
p1526
S'         4.90'
p1527
tp1528
sS'213.97.43.161'
p1529
(S'          40.00'
p1530
S'         -4.00'
p1531
tp1532
sS'151.213.150.149'
p1533
(S'          40.79'
p1534
S'         -96.69'
p1535
tp1536
sS'68.154.110.150'
p1537
(S'          33.93'
p1538
S'         -84.33'
p1539
tp1540
sS'168.150.235.195'
p1541
(S'          38.55'
p1542
S'         -121.75'
p1543
tp1544
sS'80.230.0.99'
p1545
(S'          52.35'
p1546
S'         4.90'
p1547
tp1548
sS'212.4.45.33'
p1549
(S'          58.17'
p1550
S'         8.00'
p1551
tp1552
sS'68.153.71.34'
p1553
(S'          33.93'
p1554
S'         -84.33'
p1555
tp1556
sS'66.67.216.34'
p1557
(S'          38.98'
p1558
S'         -77.39'
p1559
tp1560
sS'67.82.153.235'
p1561
(S'          40.82'
p1562
S'         -73.47'
p1563
tp1564
sS'213.17.100.8'
p1565
(S'          52.35'
p1566
S'         4.90'
p1567
tp1568
sS'65.126.107.67'
p1569
(S'          44.04'
p1570
S'         -91.65'
p1571
tp1572
sS'141.161.113.39'
p1573
(S'          38.91'
p1574
S'         -77.02'
p1575
tp1576
sS'67.8.137.142'
p1577
(S'          38.98'
p1578
S'         -77.39'
p1579
tp1580
sS'81.101.185.153'
p1581
(S'          52.35'
p1582
S'         4.90'
p1583
tp1584
sS'217.208.173.20'
p1585
(S'          52.35'
p1586
S'         4.90'
p1587
tp1588
sS'195.137.47.113'
p1589
(S'          52.35'
p1590
S'         4.90'
p1591
tp1592
sS'80.0.40.11'
p1593
(S'          52.35'
p1594
S'         4.90'
p1595
tp1596
sS'24.215.159.174'
p1597
(S'          38.88'
p1598
S'         -77.44'
p1599
tp1600
sS'193.252.7.214'
p1601
(S'          48.82'
p1602
S'         2.27'
p1603
tp1604
sS'161.253.31.135'
p1605
(S'          38.90'
p1606
S'         -77.05'
p1607
tp1608
sS'67.85.216.83'
p1609
(S'          -25.00'
p1610
S'         135.00'
p1611
tp1612
sS'64.229.86.177'
p1613
(S'          43.70'
p1614
S'         -79.42'
p1615
tp1616
sS'64.185.146.234'
p1617
(S'          33.80'
p1618
S'         -84.39'
p1619
tp1620
sS'68.166.64.34'
p1621
(S'          38.88'
p1622
S'         -77.44'
p1623
tp1624
sS'211.26.115.223'
p1625
(S'          -35.32'
p1626
S'         150.40'
p1627
tp1628
sS'209.6.58.252'
p1629
(S'          40.37'
p1630
S'         -74.64'
p1631
tp1632
sS'217.83.60.58'
p1633
(S'          52.35'
p1634
S'         4.90'
p1635
tp1636
sS'67.33.139.207'
p1637
(S'          33.93'
p1638
S'         -84.33'
p1639
tp1640
sS'137.165.212.25'
p1641
(S'          42.71'
p1642
S'         -73.20'
p1643
tp1644
sS'137.207.170.81'
p1645
(S'          48.97'
p1646
S'         -55.67'
p1647
tp1648
sS'63.206.194.196'
p1649
(S'          37.79'
p1650
S'         -122.40'
p1651
tp1652
sS'66.30.186.87'
p1653
(S'          38.98'
p1654
S'         -77.39'
p1655
tp1656
sS'66.250.142.46'
p1657
(S'          39.96'
p1658
S'         -75.20'
p1659
tp1660
sS'200.158.71.76'
p1661
(S'          -25.00'
p1662
S'         135.00'
p1663
tp1664
sS'66.205.54.2'
p1665
(S'          33.75'
p1666
S'         -117.11'
p1667
tp1668
sS'82.33.82.199'
p1669
(S'          33.98'
p1670
S'         -118.45'
p1671
tp1672
sS'212.18.248.83'
p1673
(S'          52.35'
p1674
S'         4.90'
p1675
tp1676
sS'66.169.108.97'
p1677
(S'          38.61'
p1678
S'         -90.44'
p1679
tp1680
sS'199.44.215.199'
p1681
(S'          38.00'
p1682
S'         -98.00'
p1683
tp1684
sS'12.214.255.95'
p1685
(S'          40.86'
p1686
S'         -74.41'
p1687
tp1688
sS'139.102.205.159'
p1689
(S'          39.41'
p1690
S'         -87.40'
p1691
tp1692
sS'24.68.8.152'
p1693
(S'          51.08'
p1694
S'         -114.08'
p1695
tp1696
sS'12.206.196.121'
p1697
(S'          40.86'
p1698
S'         -74.41'
p1699
tp1700
sS'219.88.197.108'
p1701
(S'          -35.32'
p1702
S'         150.40'
p1703
tp1704
sS'130.79.74.5'
p1705
(S'          48.58'
p1706
S'         7.75'
p1707
tp1708
sS'67.69.53.201'
p1709
(S'          43.70'
p1710
S'         -79.42'
p1711
tp1712
sS'62.48.98.227'
p1713
(S'          52.35'
p1714
S'         4.90'
p1715
tp1716
sS'67.73.150.149'
p1717
(S'          39.98'
p1718
S'         -105.15'
p1719
tp1720
sS'66.8.240.179'
p1721
(S'          38.98'
p1722
S'         -77.39'
p1723
tp1724
sS'196.3.50.254'
p1725
(S'          37.46'
p1726
S'         -122.13'
p1727
tp1728
sS'4.7.68.79'
p1729
(S'          42.48'
p1730
S'         -71.16'
p1731
tp1732
sS'202.156.75.36'
p1733
(S'          -35.32'
p1734
S'         150.40'
p1735
tp1736
sS'137.56.97.3'
p1737
(S'          51.57'
p1738
S'         5.08'
p1739
tp1740
sS'24.91.185.102'
p1741
(S'          42.59'
p1742
S'         -71.36'
p1743
tp1744
sS'129.132.143.75'
p1745
(S'          46.53'
p1746
S'         6.65'
p1747
tp1748
sS'68.55.37.218'
p1749
(S'          39.23'
p1750
S'         -76.70'
p1751
tp1752
sS'65.229.128.185'
p1753
(S'          39.04'
p1754
S'         -77.48'
p1755
tp1756
sS'209.158.52.2'
p1757
(S'          38.94'
p1758
S'         -77.35'
p1759
tp1760
sS'168.122.234.84'
p1761
(S'          42.35'
p1762
S'         -71.10'
p1763
tp1764
sS'200.30.217.56'
p1765
(S'          -33.45'
p1766
S'         -70.67'
p1767
tp1768
sS'80.182.9.92'
p1769
(S'          52.35'
p1770
S'         4.90'
p1771
tp1772
sS'62.194.63.50'
p1773
(S'          52.35'
p1774
S'         4.90'
p1775
tp1776
sS'213.89.4.118'
p1777
(S'          52.35'
p1778
S'         4.90'
p1779
tp1780
sS'203.208.74.109'
p1781
(S'          -35.32'
p1782
S'         150.40'
p1783
tp1784
sS'68.84.218.235'
p1785
(S'          39.93'
p1786
S'         -75.02'
p1787
tp1788
sS'62.39.232.199'
p1789
(S'          52.35'
p1790
S'         4.90'
p1791
tp1792
sS'155.210.42.70'
p1793
(S'          41.65'
p1794
S'         -0.90'
p1795
tp1796
sS'64.231.90.86'
p1797
(S'          43.70'
p1798
S'         -79.42'
p1799
tp1800
sS'68.82.126.220'
p1801
(S'          38.00'
p1802
S'         -98.00'
p1803
tp1804
sS'24.30.123.75'
p1805
(S'          42.59'
p1806
S'         -71.36'
p1807
tp1808
sS'24.158.13.70'
p1809
(S'          43.18'
p1810
S'         -89.76'
p1811
tp1812
sS'128.226.218.62'
p1813
(S'          42.15'
p1814
S'         -75.89'
p1815
tp1816
sS'144.13.232.173'
p1817
(S'          44.87'
p1818
S'         -91.93'
p1819
tp1820
sS'68.164.110.13'
p1821
(S'          -25.00'
p1822
S'         135.00'
p1823
tp1824
sS'212.181.101.113'
p1825
(S'          62.00'
p1826
S'         15.00'
p1827
tp1828
sS'24.157.151.107'
p1829
(S'          43.70'
p1830
S'         -79.42'
p1831
tp1832
sS'68.106.39.189'
p1833
(S'          33.87'
p1834
S'         -84.34'
p1835
tp1836
sS'129.116.46.60'
p1837
(S'          30.27'
p1838
S'         -97.74'
p1839
tp1840
sS'67.84.160.68'
p1841
(S'          40.82'
p1842
S'         -73.47'
p1843
tp1844
sS'68.121.211.119'
p1845
(S'          -25.00'
p1846
S'         135.00'
p1847
tp1848
sS'128.112.23.65'
p1849
(S'          40.35'
p1850
S'         -74.66'
p1851
tp1852
sS'217.82.237.118'
p1853
(S'          52.35'
p1854
S'         4.90'
p1855
tp1856
sS'66.65.178.19'
p1857
(S'          -25.00'
p1858
S'         135.00'
p1859
tp1860
sS'218.244.58.78'
p1861
(S'          -35.32'
p1862
S'         150.40'
p1863
tp1864
sS'141.150.122.23'
p1865
(S'          38.94'
p1866
S'         -77.35'
p1867
tp1868
sS'68.99.168.173'
p1869
(S'          33.87'
p1870
S'         -84.34'
p1871
tp1872
sS'193.2.1.245'
p1873
(S'          46.07'
p1874
S'         14.50'
p1875
tp1876
sS'209.53.208.34'
p1877
(S'          49.15'
p1878
S'         -123.10'
p1879
tp1880
sS'210.171.31.231'
p1881
(S'          -35.32'
p1882
S'         150.40'
p1883
tp1884
sS'66.229.173.45'
p1885
(S'          42.59'
p1886
S'         -71.36'
p1887
tp1888
sS'62.139.121.154'
p1889
(S'          52.35'
p1890
S'         4.90'
p1891
tp1892
sS'213.84.79.15'
p1893
(S'          52.35'
p1894
S'         4.90'
p1895
tp1896
sS'62.79.63.17'
p1897
(S'          55.42'
p1898
S'         11.57'
p1899
tp1900
sS'148.85.246.68'
p1901
(S'          42.38'
p1902
S'         -72.52'
p1903
tp1904
sS'24.201.61.4'
p1905
(S'          45.50'
p1906
S'         -73.60'
p1907
tp1908
sS'24.59.35.248'
p1909
(S'          38.98'
p1910
S'         -77.39'
p1911
tp1912
sS'144.13.233.196'
p1913
(S'          44.87'
p1914
S'         -91.93'
p1915
tp1916
sS'65.27.41.212'
p1917
(S'          38.98'
p1918
S'         -77.39'
p1919
tp1920
sS'213.10.20.4'
p1921
(S'          52.15'
p1922
S'         5.38'
p1923
tp1924
sS'150.250.193.16'
p1925
(S'          39.71'
p1926
S'         -75.12'
p1927
tp1928
sS'217.120.203.243'
p1929
(S'          52.35'
p1930
S'         4.90'
p1931
tp1932
sS'82.82.94.68'
p1933
(S'          33.98'
p1934
S'         -118.45'
p1935
tp1936
sS'12.254.175.120'
p1937
(S'          40.40'
p1938
S'         -74.11'
p1939
tp1940
sS'67.66.29.47'
p1941
(S'          38.88'
p1942
S'         -77.44'
p1943
tp1944
sS'141.238.106.230'
p1945
(S'          42.43'
p1946
S'         -79.33'
p1947
tp1948
sS'216.249.74.248'
p1949
(S'          34.15'
p1950
S'         -118.09'
p1951
tp1952
sS'149.159.119.117'
p1953
(S'          39.18'
p1954
S'         -86.51'
p1955
tp1956
sS'151.198.152.228'
p1957
(S'          38.94'
p1958
S'         -77.35'
p1959
tp1960
sS'129.100.199.106'
p1961
(S'          42.97'
p1962
S'         -81.25'
p1963
tp1964
sS'208.186.191.237'
p1965
(S'          33.74'
p1966
S'         -116.97'
p1967
tp1968
sS'152.78.64.84'
p1969
(S'          50.90'
p1970
S'         -1.40'
p1971
tp1972
sS'80.217.200.16'
p1973
(S'          52.35'
p1974
S'         4.90'
p1975
tp1976
sS'213.39.190.171'
p1977
(S'          52.35'
p1978
S'         4.90'
p1979
tp1980
sS'217.1.135.82'
p1981
(S'          49.87'
p1982
S'         8.65'
p1983
tp1984
sS'65.30.134.157'
p1985
(S'          38.98'
p1986
S'         -77.39'
p1987
tp1988
sS'219.89.1.184'
p1989
(S'          -35.32'
p1990
S'         150.40'
p1991
tp1992
sS'200.95.63.12'
p1993
(S'          -34.92'
p1994
S'         -56.17'
p1995
tp1996
sS'213.208.112.8'
p1997
(S'          52.35'
p1998
S'         4.90'
p1999
tp2000
sS'158.75.225.4'
p2001
(S'          53.02'
p2002
S'         18.58'
p2003
tp2004
sS'66.234.209.55'
p2005
(S'          -25.00'
p2006
S'         135.00'
p2007
tp2008
sS'216.93.214.209'
p2009
(S'          38.88'
p2010
S'         -77.44'
p2011
tp2012
sS'67.115.87.2'
p2013
(S'          37.76'
p2014
S'         -121.95'
p2015
tp2016
sS'68.115.13.149'
p2017
(S'          38.61'
p2018
S'         -90.44'
p2019
tp2020
sS'129.143.13.82'
p2021
(S'          48.78'
p2022
S'         9.20'
p2023
tp2024
sS'207.207.127.244'
p2025
(S'          47.28'
p2026
S'         -122.50'
p2027
tp2028
sS'128.138.8.33'
p2029
(S'          40.05'
p2030
S'         -105.21'
p2031
tp2032
sS'210.49.150.155'
p2033
(S'          -33.80'
p2034
S'         151.12'
p2035
tp2036
sS'209.91.50.219'
p2037
(S'          44.48'
p2038
S'         -73.22'
p2039
tp2040
sS'67.27.205.21'
p2041
(S'          39.98'
p2042
S'         -105.15'
p2043
tp2044
sS'12.249.152.107'
p2045
(S'          40.86'
p2046
S'         -74.41'
p2047
tp2048
sS'81.82.127.146'
p2049
(S'          52.35'
p2050
S'         4.90'
p2051
tp2052
sS'213.44.216.64'
p2053
(S'          52.35'
p2054
S'         4.90'
p2055
tp2056
sS'200.104.55.6'
p2057
(S'          -25.00'
p2058
S'         135.00'
p2059
tp2060
sS'213.146.113.247'
p2061
(S'          52.35'
p2062
S'         4.90'
p2063
tp2064
sS'62.174.106.194'
p2065
(S'          52.35'
p2066
S'         4.90'
p2067
tp2068
sS'80.32.154.104'
p2069
(S'          40.00'
p2070
S'         -4.00'
p2071
tp2072
sS'152.7.25.109'
p2073
(S'          35.77'
p2074
S'         -78.63'
p2075
tp2076
sS'129.252.201.88'
p2077
(S'          34.00'
p2078
S'         -81.03'
p2079
tp2080
sS'17.86.43.114'
p2081
(S'          37.32'
p2082
S'         -122.04'
p2083
tp2084
sS'12.209.166.162'
p2085
(S'          40.40'
p2086
S'         -74.11'
p2087
tp2088
sS'65.73.74.170'
p2089
(S'          -25.00'
p2090
S'         135.00'
p2091
tp2092
sS'144.132.72.251'
p2093
(S'          -37.75'
p2094
S'         144.97'
p2095
tp2096
sS'24.163.208.192'
p2097
(S'          38.98'
p2098
S'         -77.39'
p2099
tp2100
sS'68.61.171.215'
p2101
(S'          39.93'
p2102
S'         -75.02'
p2103
tp2104
sS'150.250.192.143'
p2105
(S'          39.71'
p2106
S'         -75.12'
p2107
tp2108
sS'212.127.166.129'
p2109
(S'          52.35'
p2110
S'         4.90'
p2111
tp2112
sS'62.163.85.74'
p2113
(S'          52.35'
p2114
S'         4.90'
p2115
tp2116
sS'24.45.122.7'
p2117
(S'          40.82'
p2118
S'         -73.47'
p2119
tp2120
sS'205.243.112.50'
p2121
(S'          44.04'
p2122
S'         -91.65'
p2123
tp2124
sS'203.213.101.116'
p2125
(S'          -35.32'
p2126
S'         150.40'
p2127
tp2128
sS'213.16.156.132'
p2129
(S'          35.17'
p2130
S'         25.00'
p2131
tp2132
sS'166.66.25.70'
p2133
(S'          40.00'
p2134
S'         -76.36'
p2135
tp2136
sS'212.53.113.190'
p2137
(S'          52.35'
p2138
S'         4.90'
p2139
tp2140
sS'81.97.144.241'
p2141
(S'          52.35'
p2142
S'         4.90'
p2143
tp2144
sS'24.82.118.76'
p2145
(S'          51.08'
p2146
S'         -114.08'
p2147
tp2148
sS'12.239.191.107'
p2149
(S'          40.40'
p2150
S'         -74.11'
p2151
tp2152
sS'24.53.8.238'
p2153
(S'          41.78'
p2154
S'         -78.00'
p2155
tp2156
sS'67.72.136.67'
p2157
(S'          39.98'
p2158
S'         -105.15'
p2159
tp2160
sS'217.231.237.155'
p2161
(S'          52.35'
p2162
S'         4.90'
p2163
tp2164
sS'68.116.236.11'
p2165
(S'          38.61'
p2166
S'         -90.44'
p2167
tp2168
sS'217.167.44.246'
p2169
(S'          48.87'
p2170
S'         2.33'
p2171
tp2172
sS'62.195.74.171'
p2173
(S'          52.35'
p2174
S'         4.90'
p2175
tp2176
sS'217.224.193.83'
p2177
(S'          52.35'
p2178
S'         4.90'
p2179
tp2180
sS'146.151.119.117'
p2181
(S'          43.07'
p2182
S'         -89.40'
p2183
tp2184
sS'150.209.147.208'
p2185
(S'          43.06'
p2186
S'         -75.38'
p2187
tp2188
sS'202.95.157.29'
p2189
(S'          -35.32'
p2190
S'         150.40'
p2191
tp2192
sS'143.210.52.132'
p2193
(S'          52.63'
p2194
S'         -1.13'
p2195
tp2196
sS'128.2.164.169'
p2197
(S'          40.44'
p2198
S'         -79.95'
p2199
tp2200
sS'194.47.142.243'
p2201
(S'          52.35'
p2202
S'         4.90'
p2203
tp2204
sS'128.148.179.150'
p2205
(S'          41.82'
p2206
S'         -71.42'
p2207
tp2208
sS'66.65.6.44'
p2209
(S'          38.98'
p2210
S'         -77.39'
p2211
tp2212
sS'200.98.24.226'
p2213
(S'          -34.92'
p2214
S'         -56.17'
p2215
tp2216
sS'65.97.0.23'
p2217
(S'          42.59'
p2218
S'         -71.36'
p2219
tp2220
sS'24.88.59.45'
p2221
(S'          38.98'
p2222
S'         -77.39'
p2223
tp2224
sS'65.95.28.147'
p2225
(S'          50.00'
p2226
S'         -86.00'
p2227
tp2228
sS'81.57.63.82'
p2229
(S'          52.35'
p2230
S'         4.90'
p2231
tp2232
sS'63.60.241.44'
p2233
(S'          38.86'
p2234
S'         -77.26'
p2235
tp2236
sS'68.22.144.241'
p2237
(S'          37.76'
p2238
S'         -121.95'
p2239
tp2240
sS'64.62.161.91'
p2241
(S'          37.53'
p2242
S'         -121.97'
p2243
tp2244
sS'82.82.137.240'
p2245
(S'          33.98'
p2246
S'         -118.45'
p2247
tp2248
sS'220.240.10.11'
p2249
(S'          -35.32'
p2250
S'         150.40'
p2251
tp2252
sS'128.2.156.155'
p2253
(S'          40.44'
p2254
S'         -79.95'
p2255
tp2256
sS'67.121.52.72'
p2257
(S'          37.79'
p2258
S'         -122.40'
p2259
tp2260
sS'213.224.104.82'
p2261
(S'          52.35'
p2262
S'         4.90'
p2263
tp2264
sS'207.72.141.103'
p2265
(S'          42.30'
p2266
S'         -83.71'
p2267
tp2268
sS'66.156.103.95'
p2269
(S'          33.93'
p2270
S'         -84.33'
p2271
tp2272
sS'62.131.248.38'
p2273
(S'          52.35'
p2274
S'         4.90'
p2275
tp2276
sS'138.73.78.104'
p2277
(S'          45.90'
p2278
S'         -64.38'
p2279
tp2280
sS'216.165.19.117'
p2281
(S'          40.73'
p2282
S'         -74.00'
p2283
tp2284
sS'69.17.174.135'
p2285
(S'          38.88'
p2286
S'         -77.44'
p2287
tp2288
sS'209.213.230.146'
p2289
(S'          43.02'
p2290
S'         -80.65'
p2291
tp2292
sS'65.49.86.243'
p2293
(S'          -25.00'
p2294
S'         135.00'
p2295
tp2296
sS'216.99.100.50'
p2297
(S'          42.97'
p2298
S'         -81.25'
p2299
tp2300
sS'209.220.243.4'
p2301
(S'          37.32'
p2302
S'         -121.92'
p2303
tp2304
sS'217.65.114.248'
p2305
(S'          52.35'
p2306
S'         4.90'
p2307
tp2308
sS'203.215.93.115'
p2309
(S'          14.02'
p2310
S'         122.18'
p2311
tp2312
sS'128.208.62.203'
p2313
(S'          47.66'
p2314
S'         -122.30'
p2315
tp2316
sS'24.159.123.69'
p2317
(S'          38.61'
p2318
S'         -90.44'
p2319
tp2320
sS'193.192.9.15'
p2321
(S'          52.35'
p2322
S'         4.90'
p2323
tp2324
sS'66.82.194.31'
p2325
(S'          38.88'
p2326
S'         -77.44'
p2327
tp2328
sS'137.22.97.80'
p2329
(S'          44.46'
p2330
S'         -93.17'
p2331
tp2332
sS'24.84.166.254'
p2333
(S'          51.08'
p2334
S'         -114.08'
p2335
tp2336
sS'128.194.6.220'
p2337
(S'          30.61'
p2338
S'         -96.34'
p2339
tp2340
sS'200.193.41.183'
p2341
(S'          -34.92'
p2342
S'         -56.17'
p2343
tp2344
sS'202.156.237.194'
p2345
(S'          -35.32'
p2346
S'         150.40'
p2347
tp2348
sS'62.203.164.45'
p2349
(S'          52.35'
p2350
S'         4.90'
p2351
tp2352
sS'81.178.229.221'
p2353
(S'          52.35'
p2354
S'         4.90'
p2355
tp2356
sS'128.211.210.138'
p2357
(S'          40.44'
p2358
S'         -86.92'
p2359
tp2360
sS'4.47.110.234'
p2361
(S'          32.87'
p2362
S'         -96.99'
p2363
tp2364
sS'12.231.150.133'
p2365
(S'          40.40'
p2366
S'         -74.11'
p2367
tp2368
sS'62.94.158.22'
p2369
(S'          45.43'
p2370
S'         11.00'
p2371
tp2372
sS'213.46.128.55'
p2373
(S'          52.35'
p2374
S'         4.90'
p2375
tp2376
sS'213.84.98.106'
p2377
(S'          52.35'
p2378
S'         4.90'
p2379
tp2380
sS'128.36.59.144'
p2381
(S'          41.31'
p2382
S'         -72.93'
p2383
tp2384
sS'80.55.204.146'
p2385
(S'          52.35'
p2386
S'         4.90'
p2387
tp2388
sS'211.202.94.8'
p2389
(S'          -35.32'
p2390
S'         150.40'
p2391
tp2392
sS'24.49.5.148'
p2393
(S'          41.78'
p2394
S'         -78.00'
p2395
tp2396
sS'24.80.66.209'
p2397
(S'          51.08'
p2398
S'         -114.08'
p2399
tp2400
sS'24.94.18.48'
p2401
(S'          38.98'
p2402
S'         -77.39'
p2403
tp2404
sS'64.161.51.82'
p2405
(S'          37.79'
p2406
S'         -122.40'
p2407
tp2408
sS'171.75.15.9'
p2409
(S'          42.48'
p2410
S'         -71.16'
p2411
tp2412
sS'24.77.134.82'
p2413
(S'          51.08'
p2414
S'         -114.08'
p2415
tp2416
sS'24.202.177.195'
p2417
(S'          45.50'
p2418
S'         -73.60'
p2419
tp2420
sS'66.67.135.129'
p2421
(S'          38.98'
p2422
S'         -77.39'
p2423
tp2424
sS'66.122.213.67'
p2425
(S'          37.79'
p2426
S'         -122.40'
p2427
tp2428
sS'62.147.246.183'
p2429
(S'          52.35'
p2430
S'         4.90'
p2431
tp2432
sS'69.11.162.230'
p2433
(S'          -25.00'
p2434
S'         135.00'
p2435
tp2436
sS'68.86.241.187'
p2437
(S'          39.93'
p2438
S'         -75.02'
p2439
tp2440
sS'12.245.170.77'
p2441
(S'          40.40'
p2442
S'         -74.11'
p2443
tp2444
sS'216.39.201.105'
p2445
(S'          29.62'
p2446
S'         -95.57'
p2447
tp2448
sS'24.73.245.194'
p2449
(S'          -35.32'
p2450
S'         150.40'
p2451
tp2452
sS'165.82.100.34'
p2453
(S'          40.01'
p2454
S'         -75.31'
p2455
tp2456
sS'142.179.241.226'
p2457
(S'          45.42'
p2458
S'         -75.72'
p2459
tp2460
sS'66.30.253.2'
p2461
(S'          42.59'
p2462
S'         -71.36'
p2463
tp2464
sS'4.60.6.140'
p2465
(S'          42.48'
p2466
S'         -71.16'
p2467
tp2468
sS'24.25.237.175'
p2469
(S'          38.98'
p2470
S'         -77.39'
p2471
tp2472
sS'62.167.73.135'
p2473
(S'          52.35'
p2474
S'         4.90'
p2475
tp2476
sS'207.248.46.240'
p2477
(S'          25.20'
p2478
S'         -99.83'
p2479
tp2480
sS'80.243.160.81'
p2481
(S'          52.35'
p2482
S'         4.90'
p2483
tp2484
sS'63.138.232.192'
p2485
(S'          -25.00'
p2486
S'         135.00'
p2487
tp2488
sS'12.210.91.192'
p2489
(S'          40.86'
p2490
S'         -74.41'
p2491
tp2492
sS'66.143.35.19'
p2493
(S'          33.03'
p2494
S'         -96.74'
p2495
tp2496
sS'67.30.52.16'
p2497
(S'          39.98'
p2498
S'         -105.15'
p2499
tp2500
sS'212.83.72.215'
p2501
(S'          52.35'
p2502
S'         4.90'
p2503
tp2504
sS'68.155.77.77'
p2505
(S'          33.93'
p2506
S'         -84.33'
p2507
tp2508
sS'128.208.32.36'
p2509
(S'          47.66'
p2510
S'         -122.30'
p2511
tp2512
sS'81.249.54.26'
p2513
(S'          52.35'
p2514
S'         4.90'
p2515
tp2516
sS'64.209.126.42'
p2517
(S'          33.08'
p2518
S'         -96.78'
p2519
tp2520
sS'168.122.168.21'
p2521
(S'          42.35'
p2522
S'         -71.10'
p2523
tp2524
sS'131.170.216.208'
p2525
(S'          -37.75'
p2526
S'         144.97'
p2527
tp2528
sS'205.206.149.87'
p2529
(S'          43.63'
p2530
S'         -79.60'
p2531
tp2532
sS'195.114.129.100'
p2533
(S'          52.35'
p2534
S'         4.90'
p2535
tp2536
sS'80.28.193.215'
p2537
(S'          52.35'
p2538
S'         4.90'
p2539
tp2540
sS'68.97.31.203'
p2541
(S'          33.94'
p2542
S'         -84.32'
p2543
tp2544
sS'68.107.178.5'
p2545
(S'          33.87'
p2546
S'         -84.34'
p2547
tp2548
sS'68.155.217.183'
p2549
(S'          33.93'
p2550
S'         -84.33'
p2551
tp2552
sS'216.126.80.221'
p2553
(S'          43.70'
p2554
S'         -79.42'
p2555
tp2556
sS'66.158.103.244'
p2557
(S'          39.80'
p2558
S'         -89.65'
p2559
tp2560
sS'213.54.54.161'
p2561
(S'          52.35'
p2562
S'         4.90'
p2563
tp2564
sS'81.67.30.114'
p2565
(S'          52.35'
p2566
S'         4.90'
p2567
tp2568
sS'66.131.243.100'
p2569
(S'          -25.00'
p2570
S'         135.00'
p2571
tp2572
sS'12.213.239.46'
p2573
(S'          40.40'
p2574
S'         -74.11'
p2575
tp2576
sS'82.35.90.10'
p2577
(S'          33.98'
p2578
S'         -118.45'
p2579
tp2580
sS'195.149.46.194'
p2581
(S'          51.83'
p2582
S'         -0.83'
p2583
tp2584
sS'66.130.215.237'
p2585
(S'          45.50'
p2586
S'         -73.60'
p2587
tp2588
sS'66.135.179.81'
p2589
(S'          37.92'
p2590
S'         -121.91'
p2591
tp2592
sS'24.193.85.250'
p2593
(S'          38.98'
p2594
S'         -77.39'
p2595
tp2596
sS'68.56.137.130'
p2597
(S'          27.32'
p2598
S'         -82.48'
p2599
tp2600
sS'212.68.238.117'
p2601
(S'          52.35'
p2602
S'         4.90'
p2603
tp2604
sS'24.241.225.24'
p2605
(S'          -35.32'
p2606
S'         150.40'
p2607
tp2608
sS'66.24.205.215'
p2609
(S'          38.98'
p2610
S'         -77.39'
p2611
tp2612
sS'200.40.165.80'
p2613
(S'          -34.92'
p2614
S'         -56.17'
p2615
tp2616
sS'68.163.111.180'
p2617
(S'          -25.00'
p2618
S'         135.00'
p2619
tp2620
sS'68.104.17.224'
p2621
(S'          33.75'
p2622
S'         -84.39'
p2623
tp2624
sS'64.105.46.34'
p2625
(S'          37.35'
p2626
S'         -121.95'
p2627
tp2628
sS'67.20.16.63'
p2629
(S'          -25.00'
p2630
S'         135.00'
p2631
tp2632
sS'128.211.207.210'
p2633
(S'          40.44'
p2634
S'         -86.92'
p2635
tp2636
sS'66.131.48.138'
p2637
(S'          45.50'
p2638
S'         -73.60'
p2639
tp2640
sS'67.120.25.44'
p2641
(S'          37.79'
p2642
S'         -122.40'
p2643
tp2644
sS'65.178.137.92'
p2645
(S'          38.94'
p2646
S'         -77.35'
p2647
tp2648
sS'212.152.28.63'
p2649
(S'          52.35'
p2650
S'         4.90'
p2651
tp2652
sS'212.27.209.7'
p2653
(S'          50.10'
p2654
S'         14.43'
p2655
tp2656
sS'63.156.24.30'
p2657
(S'          39.75'
p2658
S'         -104.99'
p2659
tp2660
sS'195.137.98.100'
p2661
(S'          52.35'
p2662
S'         4.90'
p2663
tp2664
sS'128.2.157.41'
p2665
(S'          40.44'
p2666
S'         -79.95'
p2667
tp2668
sS'24.233.133.217'
p2669
(S'          -35.32'
p2670
S'         150.40'
p2671
tp2672
sS'65.35.208.91'
p2673
(S'          38.98'
p2674
S'         -77.39'
p2675
tp2676
sS'203.193.147.238'
p2677
(S'          -35.32'
p2678
S'         150.40'
p2679
tp2680
sS'62.194.6.16'
p2681
(S'          52.35'
p2682
S'         4.90'
p2683
tp2684
sS'67.162.147.121'
p2685
(S'          -25.00'
p2686
S'         135.00'
p2687
tp2688
sS'68.165.21.161'
p2689
(S'          -25.00'
p2690
S'         135.00'
p2691
tp2692
sS'66.24.180.131'
p2693
(S'          38.98'
p2694
S'         -77.39'
p2695
tp2696
sS'129.252.135.37'
p2697
(S'          34.00'
p2698
S'         -81.03'
p2699
tp2700
sS'66.65.184.226'
p2701
(S'          -25.00'
p2702
S'         135.00'
p2703
tp2704
sS'68.202.192.81'
p2705
(S'          -25.00'
p2706
S'         135.00'
p2707
tp2708
sS'217.42.179.174'
p2709
(S'          52.35'
p2710
S'         4.90'
p2711
tp2712
sS'24.164.137.35'
p2713
(S'          38.98'
p2714
S'         -77.39'
p2715
tp2716
sS'144.137.30.44'
p2717
(S'          -34.93'
p2718
S'         138.60'
p2719
tp2720
sS'67.100.38.11'
p2721
(S'          38.88'
p2722
S'         -77.44'
p2723
tp2724
sS'68.167.98.35'
p2725
(S'          -25.00'
p2726
S'         135.00'
p2727
tp2728
sS'64.178.106.158'
p2729
(S'          40.81'
p2730
S'         -77.89'
p2731
tp2732
sS'200.162.236.150'
p2733
(S'          -25.00'
p2734
S'         135.00'
p2735
tp2736
sS'67.161.192.156'
p2737
(S'          -25.00'
p2738
S'         135.00'
p2739
tp2740
sS'200.67.88.98'
p2741
(S'          -34.92'
p2742
S'         -56.17'
p2743
tp2744
sS'213.98.125.225'
p2745
(S'          40.00'
p2746
S'         -4.00'
p2747
tp2748
sS'68.165.58.97'
p2749
(S'          -25.00'
p2750
S'         135.00'
p2751
tp2752
sS'146.151.58.17'
p2753
(S'          43.07'
p2754
S'         -89.40'
p2755
tp2756
sS'212.203.43.5'
p2757
(S'          52.35'
p2758
S'         4.90'
p2759
tp2760
sS'216.223.200.10'
p2761
(S'          40.73'
p2762
S'         -74.01'
p2763
tp2764
sS'216.165.18.39'
p2765
(S'          40.73'
p2766
S'         -74.00'
p2767
tp2768
sS'212.202.27.156'
p2769
(S'          52.35'
p2770
S'         4.90'
p2771
tp2772
sS'141.117.46.72'
p2773
(S'          43.70'
p2774
S'         -79.42'
p2775
tp2776
sS'80.133.113.110'
p2777
(S'          52.35'
p2778
S'         4.90'
p2779
tp2780
sS'80.164.4.134'
p2781
(S'          52.35'
p2782
S'         4.90'
p2783
tp2784
sS'24.85.92.154'
p2785
(S'          51.08'
p2786
S'         -114.08'
p2787
tp2788
sS'216.165.64.18'
p2789
(S'          40.73'
p2790
S'         -74.00'
p2791
tp2792
sS'204.201.61.50'
p2793
(S'          39.58'
p2794
S'         -104.90'
p2795
tp2796
sS'142.173.100.146'
p2797
(S'          45.42'
p2798
S'         -75.72'
p2799
tp2800
sS'81.166.9.168'
p2801
(S'          52.35'
p2802
S'         4.90'
p2803
tp2804
sS'68.106.165.84'
p2805
(S'          33.87'
p2806
S'         -84.34'
p2807
tp2808
sS'80.126.214.102'
p2809
(S'          52.35'
p2810
S'         4.90'
p2811
tp2812
sS'24.101.231.74'
p2813
(S'          43.70'
p2814
S'         -79.42'
p2815
tp2816
sS'200.141.150.219'
p2817
(S'          -34.92'
p2818
S'         -56.17'
p2819
tp2820
sS'213.224.32.132'
p2821
(S'          52.35'
p2822
S'         4.90'
p2823
tp2824
sS'24.89.15.209'
p2825
(S'          39.20'
p2826
S'         -86.58'
p2827
tp2828
sS'67.85.190.17'
p2829
(S'          -25.00'
p2830
S'         135.00'
p2831
tp2832
sS'213.118.43.68'
p2833
(S'          52.35'
p2834
S'         4.90'
p2835
tp2836
sS'24.84.255.96'
p2837
(S'          51.08'
p2838
S'         -114.08'
p2839
tp2840
sS'80.15.55.220'
p2841
(S'          46.58'
p2842
S'         0.33'
p2843
tp2844
sS'66.65.167.171'
p2845
(S'          -25.00'
p2846
S'         135.00'
p2847
tp2848
sS'142.151.149.161'
p2849
(S'          43.70'
p2850
S'         -79.42'
p2851
tp2852
sS'66.91.5.67'
p2853
(S'          38.98'
p2854
S'         -77.39'
p2855
tp2856
sS'172.161.15.48'
p2857
(S'          38.93'
p2858
S'         -77.26'
p2859
tp2860
sS'212.129.199.68'
p2861
(S'          52.35'
p2862
S'         4.90'
p2863
tp2864
sS'213.160.199.34'
p2865
(S'          36.00'
p2866
S'         138.00'
p2867
tp2868
sS'200.93.61.159'
p2869
(S'          -25.00'
p2870
S'         135.00'
p2871
tp2872
sS'82.32.107.217'
p2873
(S'          33.98'
p2874
S'         -118.45'
p2875
tp2876
sS'146.115.102.182'
p2877
(S'          40.37'
p2878
S'         -74.64'
p2879
tp2880
sS'66.66.45.130'
p2881
(S'          38.98'
p2882
S'         -77.39'
p2883
tp2884
sS'24.187.255.165'
p2885
(S'          40.82'
p2886
S'         -73.47'
p2887
tp2888
sS'68.8.88.87'
p2889
(S'          33.94'
p2890
S'         -84.32'
p2891
tp2892
sS'128.214.189.85'
p2893
(S'          60.17'
p2894
S'         24.70'
p2895
tp2896
sS'68.36.180.113'
p2897
(S'          40.60'
p2898
S'         -74.45'
p2899
tp2900
sS'12.212.40.47'
p2901
(S'          40.86'
p2902
S'         -74.41'
p2903
tp2904
sS'67.23.49.145'
p2905
(S'          38.88'
p2906
S'         -77.44'
p2907
tp2908
sS'213.106.184.4'
p2909
(S'          52.35'
p2910
S'         4.90'
p2911
tp2912
sS'68.11.30.254'
p2913
(S'          29.94'
p2914
S'         -90.08'
p2915
tp2916
sS'68.196.235.151'
p2917
(S'          38.88'
p2918
S'         -77.44'
p2919
tp2920
sS'68.165.234.44'
p2921
(S'          38.88'
p2922
S'         -77.44'
p2923
tp2924
sS'130.13.108.165'
p2925
(S'          39.75'
p2926
S'         -104.99'
p2927
tp2928
sS'67.42.9.48'
p2929
(S'          -25.00'
p2930
S'         135.00'
p2931
tp2932
sS'203.131.150.128'
p2933
(S'          -35.32'
p2934
S'         150.40'
p2935
tp2936
sS'195.132.55.70'
p2937
(S'          52.35'
p2938
S'         4.90'
p2939
tp2940
sS'66.167.139.140'
p2941
(S'          37.35'
p2942
S'         -121.95'
p2943
tp2944
sS'137.81.112.193'
p2945
(S'          46.70'
p2946
S'         -92.09'
p2947
tp2948
sS'82.41.89.166'
p2949
(S'          33.98'
p2950
S'         -118.45'
p2951
tp2952
sS'200.89.181.232'
p2953
(S'          -34.92'
p2954
S'         -56.17'
p2955
tp2956
sS'217.235.109.99'
p2957
(S'          52.35'
p2958
S'         4.90'
p2959
tp2960
sS'12.240.176.121'
p2961
(S'          40.40'
p2962
S'         -74.11'
p2963
tp2964
sS'66.91.12.44'
p2965
(S'          38.98'
p2966
S'         -77.39'
p2967
tp2968
sS'24.33.228.8'
p2969
(S'          38.88'
p2970
S'         -77.44'
p2971
tp2972
sS'66.203.188.128'
p2973
(S'          52.50'
p2974
S'         5.75'
p2975
tp2976
sS'192.131.123.121'
p2977
(S'          39.80'
p2978
S'         -83.89'
p2979
tp2980
sS'80.126.117.129'
p2981
(S'          52.35'
p2982
S'         4.90'
p2983
tp2984
sS'24.203.134.6'
p2985
(S'          45.50'
p2986
S'         -73.60'
p2987
tp2988
sS'24.222.145.83'
p2989
(S'          44.63'
p2990
S'         -63.58'
p2991
tp2992
sS'68.42.111.153'
p2993
(S'          39.93'
p2994
S'         -75.02'
p2995
tp2996
sS'62.112.220.53'
p2997
(S'          47.50'
p2998
S'         19.05'
p2999
tp3000
sS'65.94.114.253'
p3001
(S'          45.50'
p3002
S'         -73.60'
p3003
tp3004
sS'12.203.227.134'
p3005
(S'          40.40'
p3006
S'         -74.11'
p3007
tp3008
sS'211.28.168.30'
p3009
(S'          -35.32'
p3010
S'         150.40'
p3011
tp3012
sS'12.250.3.36'
p3013
(S'          40.40'
p3014
S'         -74.11'
p3015
tp3016
sS'80.126.31.19'
p3017
(S'          52.35'
p3018
S'         4.90'
p3019
tp3020
sS'24.77.30.225'
p3021
(S'          51.08'
p3022
S'         -114.08'
p3023
tp3024
sS'217.134.249.228'
p3025
(S'          52.35'
p3026
S'         4.90'
p3027
tp3028
sS'212.37.30.18'
p3029
(S'          62.00'
p3030
S'         15.00'
p3031
tp3032
sS'81.57.61.20'
p3033
(S'          52.35'
p3034
S'         4.90'
p3035
tp3036
sS'66.41.107.12'
p3037
(S'          42.59'
p3038
S'         -71.36'
p3039
tp3040
sS'129.110.39.39'
p3041
(S'          32.97'
p3042
S'         -96.75'
p3043
tp3044
sS'81.5.8.204'
p3045
(S'          52.35'
p3046
S'         4.90'
p3047
tp3048
sS'202.172.119.240'
p3049
(S'          -35.32'
p3050
S'         150.40'
p3051
tp3052
sS'67.9.107.240'
p3053
(S'          38.98'
p3054
S'         -77.39'
p3055
tp3056
sS'62.131.68.133'
p3057
(S'          52.35'
p3058
S'         4.90'
p3059
tp3060
sS'68.194.17.46'
p3061
(S'          -25.00'
p3062
S'         135.00'
p3063
tp3064
sS'63.192.8.230'
p3065
(S'          37.76'
p3066
S'         -122.40'
p3067
tp3068
sS'131.170.114.90'
p3069
(S'          -37.75'
p3070
S'         144.97'
p3071
tp3072
sS'162.83.159.179'
p3073
(S'          38.94'
p3074
S'         -77.35'
p3075
tp3076
sS'69.22.13.43'
p3077
(S'          -25.00'
p3078
S'         135.00'
p3079
tp3080
sS'68.68.68.86'
p3081
(S'          41.78'
p3082
S'         -78.00'
p3083
tp3084
sS'82.36.124.7'
p3085
(S'          33.98'
p3086
S'         -118.45'
p3087
tp3088
sS'24.94.122.72'
p3089
(S'          38.98'
p3090
S'         -77.39'
p3091
tp3092
sS'68.18.16.52'
p3093
(S'          33.93'
p3094
S'         -84.33'
p3095
tp3096
sS'213.84.39.165'
p3097
(S'          52.35'
p3098
S'         4.90'
p3099
tp3100
sS'148.243.251.42'
p3101
(S'          19.40'
p3102
S'         -99.15'
p3103
tp3104
sS'66.149.70.166'
p3105
(S'          34.15'
p3106
S'         -118.09'
p3107
tp3108
sS'210.186.220.1'
p3109
(S'          3.33'
p3110
S'         101.50'
p3111
tp3112
sS'143.107.135.201'
p3113
(S'          -10.00'
p3114
S'         -55.00'
p3115
tp3116
sS'66.215.138.10'
p3117
(S'          -25.00'
p3118
S'         135.00'
p3119
tp3120
sS'81.226.15.144'
p3121
(S'          52.35'
p3122
S'         4.90'
p3123
tp3124
sS'200.104.39.128'
p3125
(S'          -25.00'
p3126
S'         135.00'
p3127
tp3128
sS'217.232.145.106'
p3129
(S'          52.35'
p3130
S'         4.90'
p3131
tp3132
sS'24.193.236.214'
p3133
(S'          38.88'
p3134
S'         -77.44'
p3135
tp3136
sS'216.6.160.199'
p3137
(S'          41.27'
p3138
S'         -74.36'
p3139
tp3140
sS'68.170.115.178'
p3141
(S'          38.88'
p3142
S'         -77.44'
p3143
tp3144
sS'217.42.139.80'
p3145
(S'          52.35'
p3146
S'         4.90'
p3147
tp3148
sS'67.64.148.201'
p3149
(S'          33.03'
p3150
S'         -96.74'
p3151
tp3152
sS'199.94.77.42'
p3153
(S'          42.35'
p3154
S'         -71.08'
p3155
tp3156
sS'217.236.9.90'
p3157
(S'          52.35'
p3158
S'         4.90'
p3159
tp3160
sS'202.182.90.114'
p3161
(S'          -35.32'
p3162
S'         150.40'
p3163
tp3164
sS'12.223.86.18'
p3165
(S'          40.40'
p3166
S'         -74.11'
p3167
tp3168
sS'81.48.81.46'
p3169
(S'          52.35'
p3170
S'         4.90'
p3171
tp3172
sS'128.148.224.189'
p3173
(S'          41.82'
p3174
S'         -71.42'
p3175
tp3176
sS'203.51.71.78'
p3177
(S'          -35.32'
p3178
S'         150.40'
p3179
tp3180
sS'65.35.24.215'
p3181
(S'          38.98'
p3182
S'         -77.39'
p3183
tp3184
sS'212.202.54.47'
p3185
(S'          52.35'
p3186
S'         4.90'
p3187
tp3188
sS'4.42.7.9'
p3189
(S'          32.87'
p3190
S'         -96.99'
p3191
tp3192
sS'81.6.246.57'
p3193
(S'          52.35'
p3194
S'         4.90'
p3195
tp3196
sS'130.212.157.22'
p3197
(S'          37.72'
p3198
S'         -122.48'
p3199
tp3200
sS'212.238.216.9'
p3201
(S'          52.35'
p3202
S'         4.90'
p3203
tp3204
sS'67.71.120.178'
p3205
(S'          38.88'
p3206
S'         -77.44'
p3207
tp3208
sS'195.137.40.138'
p3209
(S'          52.35'
p3210
S'         4.90'
p3211
tp3212
sS'81.164.237.149'
p3213
(S'          52.35'
p3214
S'         4.90'
p3215
tp3216
sS'142.173.246.13'
p3217
(S'          45.42'
p3218
S'         -75.72'
p3219
tp3220
sS'206.172.255.10'
p3221
(S'          45.42'
p3222
S'         -75.72'
p3223
tp3224
sS'80.199.133.195'
p3225
(S'          56.00'
p3226
S'         10.00'
p3227
tp3228
sS'63.246.170.44'
p3229
(S'          -25.00'
p3230
S'         135.00'
p3231
tp3232
sS'141.151.62.106'
p3233
(S'          38.94'
p3234
S'         -77.35'
p3235
tp3236
sS'81.51.15.51'
p3237
(S'          45.18'
p3238
S'         5.72'
p3239
tp3240
sS'66.235.58.37'
p3241
(S'          47.56'
p3242
S'         -122.16'
p3243
tp3244
sS'12.203.231.166'
p3245
(S'          40.86'
p3246
S'         -74.41'
p3247
tp3248
sS'80.218.231.28'
p3249
(S'          52.35'
p3250
S'         4.90'
p3251
tp3252
sS'172.194.247.187'
p3253
(S'          38.93'
p3254
S'         -77.26'
p3255
tp3256
sS'24.151.71.235'
p3257
(S'          41.39'
p3258
S'         -73.32'
p3259
tp3260
sS'195.137.48.229'
p3261
(S'          52.35'
p3262
S'         4.90'
p3263
tp3264
sS'129.64.130.18'
p3265
(S'          38.00'
p3266
S'         -98.00'
p3267
tp3268
sS'217.121.28.122'
p3269
(S'          52.35'
p3270
S'         4.90'
p3271
tp3272
sS'66.183.133.254'
p3273
(S'          49.27'
p3274
S'         -122.97'
p3275
tp3276
sS'66.32.185.235'
p3277
(S'          34.15'
p3278
S'         -118.09'
p3279
tp3280
sS'12.224.59.124'
p3281
(S'          40.86'
p3282
S'         -74.41'
p3283
tp3284
sS'66.157.100.133'
p3285
(S'          33.93'
p3286
S'         -84.33'
p3287
tp3288
sS'81.51.65.181'
p3289
(S'          52.35'
p3290
S'         4.90'
p3291
tp3292
sS'130.68.210.173'
p3293
(S'          40.84'
p3294
S'         -74.20'
p3295
tp3296
sS'216.222.237.144'
p3297
(S'          41.36'
p3298
S'         -75.96'
p3299
tp3300
sS'82.34.152.124'
p3301
(S'          33.98'
p3302
S'         -118.45'
p3303
tp3304
sS'24.131.191.24'
p3305
(S'          42.59'
p3306
S'         -71.36'
p3307
tp3308
sS'203.58.21.156'
p3309
(S'          -35.32'
p3310
S'         150.40'
p3311
tp3312
sS'62.100.16.166'
p3313
(S'          52.35'
p3314
S'         4.90'
p3315
tp3316
sS'68.75.54.162'
p3317
(S'          -25.00'
p3318
S'         135.00'
p3319
tp3320
sS'81.40.49.253'
p3321
(S'          52.35'
p3322
S'         4.90'
p3323
tp3324
sS'80.182.121.13'
p3325
(S'          52.35'
p3326
S'         4.90'
p3327
tp3328
sS'131.230.152.253'
p3329
(S'          37.72'
p3330
S'         -89.22'
p3331
tp3332
sS'80.110.200.38'
p3333
(S'          52.35'
p3334
S'         4.90'
p3335
tp3336
sS'80.202.148.14'
p3337
(S'          52.35'
p3338
S'         4.90'
p3339
tp3340
sS'138.5.102.17'
p3341
(S'          40.65'
p3342
S'         -73.93'
p3343
tp3344
sS'81.128.54.61'
p3345
(S'          52.35'
p3346
S'         4.90'
p3347
tp3348
sS'134.69.127.138'
p3349
(S'          34.13'
p3350
S'         -118.21'
p3351
tp3352
sS'82.36.174.198'
p3353
(S'          33.98'
p3354
S'         -118.45'
p3355
tp3356
sS'68.161.91.123'
p3357
(S'          38.94'
p3358
S'         -77.35'
p3359
tp3360
sS'128.2.161.16'
p3361
(S'          40.44'
p3362
S'         -79.95'
p3363
tp3364
sS'213.54.18.84'
p3365
(S'          52.35'
p3366
S'         4.90'
p3367
tp3368
sS'149.72.48.66'
p3369
(S'          40.74'
p3370
S'         -73.13'
p3371
tp3372
sS'146.115.59.83'
p3373
(S'          40.37'
p3374
S'         -74.64'
p3375
tp3376
sS'213.54.176.197'
p3377
(S'          52.35'
p3378
S'         4.90'
p3379
tp3380
sS'81.57.243.81'
p3381
(S'          52.35'
p3382
S'         4.90'
p3383
tp3384
sS'63.201.87.58'
p3385
(S'          37.76'
p3386
S'         -122.40'
p3387
tp3388
sS'24.54.230.144'
p3389
(S'          41.78'
p3390
S'         -78.00'
p3391
tp3392
sS'200.63.220.134'
p3393
(S'          -25.00'
p3394
S'         135.00'
p3395
tp3396
sS'199.79.168.252'
p3397
(S'          41.04'
p3398
S'         -73.72'
p3399
tp3400
sS'24.29.35.156'
p3401
(S'          38.98'
p3402
S'         -77.39'
p3403
tp3404
sS'217.84.85.35'
p3405
(S'          52.35'
p3406
S'         4.90'
p3407
tp3408
sS'207.6.20.169'
p3409
(S'          45.42'
p3410
S'         -75.72'
p3411
tp3412
sS'81.134.14.230'
p3413
(S'          52.35'
p3414
S'         4.90'
p3415
tp3416
sS'68.101.223.152'
p3417
(S'          32.79'
p3418
S'         -116.97'
p3419
tp3420
sS'172.154.223.228'
p3421
(S'          38.93'
p3422
S'         -77.26'
p3423
tp3424
sS'24.70.64.10'
p3425
(S'          51.08'
p3426
S'         -114.08'
p3427
tp3428
sS'67.68.8.174'
p3429
(S'          43.70'
p3430
S'         -79.42'
p3431
tp3432
sS'213.89.253.104'
p3433
(S'          52.35'
p3434
S'         4.90'
p3435
tp3436
sS'68.83.14.237'
p3437
(S'          39.93'
p3438
S'         -75.02'
p3439
tp3440
sS'217.236.5.224'
p3441
(S'          52.35'
p3442
S'         4.90'
p3443
tp3444
sS'64.180.75.18'
p3445
(S'          60.00'
p3446
S'         -96.00'
p3447
tp3448
sS'24.67.193.45'
p3449
(S'          51.08'
p3450
S'         -114.08'
p3451
tp3452
sS'67.69.189.4'
p3453
(S'          43.70'
p3454
S'         -79.42'
p3455
tp3456
sS'12.17.196.35'
p3457
(S'          42.85'
p3458
S'         -106.32'
p3459
tp3460
sS'129.82.93.173'
p3461
(S'          40.58'
p3462
S'         -105.10'
p3463
tp3464
sS'141.213.191.211'
p3465
(S'          42.29'
p3466
S'         -83.72'
p3467
tp3468
sS'24.192.97.157'
p3469
(S'          43.70'
p3470
S'         -79.42'
p3471
tp3472
sS'208.61.29.252'
p3473
(S'          33.93'
p3474
S'         -84.33'
p3475
tp3476
sS'80.15.156.16'
p3477
(S'          48.82'
p3478
S'         2.27'
p3479
tp3480
sS'12.224.169.207'
p3481
(S'          40.86'
p3482
S'         -74.41'
p3483
tp3484
sS'12.227.124.54'
p3485
(S'          40.40'
p3486
S'         -74.11'
p3487
tp3488
sS'81.53.167.188'
p3489
(S'          52.35'
p3490
S'         4.90'
p3491
tp3492
sS'212.171.10.108'
p3493
(S'          52.35'
p3494
S'         4.90'
p3495
tp3496
sS'24.99.28.216'
p3497
(S'          42.59'
p3498
S'         -71.36'
p3499
tp3500
sS'24.61.1.57'
p3501
(S'          42.59'
p3502
S'         -71.36'
p3503
tp3504
sS'12.249.178.47'
p3505
(S'          40.40'
p3506
S'         -74.11'
p3507
tp3508
sS'203.221.74.174'
p3509
(S'          -35.32'
p3510
S'         150.40'
p3511
tp3512
sS'172.203.24.13'
p3513
(S'          38.88'
p3514
S'         -77.44'
p3515
tp3516
sS'68.82.203.196'
p3517
(S'          38.00'
p3518
S'         -98.00'
p3519
tp3520
sS'12.236.88.22'
p3521
(S'          40.40'
p3522
S'         -74.11'
p3523
tp3524
sS'195.186.223.73'
p3525
(S'          52.35'
p3526
S'         4.90'
p3527
tp3528
sS'82.65.100.168'
p3529
(S'          33.98'
p3530
S'         -118.45'
p3531
tp3532
sS'150.131.137.109'
p3533
(S'          46.86'
p3534
S'         -114.03'
p3535
tp3536
sS'146.151.78.176'
p3537
(S'          43.07'
p3538
S'         -89.40'
p3539
tp3540
sS'65.35.147.161'
p3541
(S'          38.98'
p3542
S'         -77.39'
p3543
tp3544
sS'68.185.101.113'
p3545
(S'          -25.00'
p3546
S'         135.00'
p3547
tp3548
sS'66.131.182.213'
p3549
(S'          38.88'
p3550
S'         -77.44'
p3551
tp3552
sS'129.15.135.141'
p3553
(S'          35.22'
p3554
S'         -97.46'
p3555
tp3556
sS'12.236.189.129'
p3557
(S'          40.40'
p3558
S'         -74.11'
p3559
tp3560
sS'66.218.62.119'
p3561
(S'          34.20'
p3562
S'         -118.49'
p3563
tp3564
sS'141.150.180.244'
p3565
(S'          38.94'
p3566
S'         -77.35'
p3567
tp3568
sS'80.202.75.242'
p3569
(S'          52.35'
p3570
S'         4.90'
p3571
tp3572
sS'66.168.18.138'
p3573
(S'          38.61'
p3574
S'         -90.44'
p3575
tp3576
sS'24.72.64.105'
p3577
(S'          50.50'
p3578
S'         -104.63'
p3579
tp3580
sS'132.216.181.7'
p3581
(S'          45.50'
p3582
S'         -73.60'
p3583
tp3584
sS'67.34.192.83'
p3585
(S'          33.93'
p3586
S'         -84.33'
p3587
tp3588
sS'213.122.144.175'
p3589
(S'          51.77'
p3590
S'         -0.35'
p3591
tp3592
sS'12.209.196.93'
p3593
(S'          40.86'
p3594
S'         -74.41'
p3595
tp3596
sS'65.49.33.98'
p3597
(S'          -25.00'
p3598
S'         135.00'
p3599
tp3600
sS'24.116.78.55'
p3601
(S'          46.39'
p3602
S'         -116.99'
p3603
tp3604
sS'67.121.235.131'
p3605
(S'          37.79'
p3606
S'         -122.40'
p3607
tp3608
sS'63.194.255.98'
p3609
(S'          37.79'
p3610
S'         -122.40'
p3611
tp3612
sS'194.109.221.20'
p3613
(S'          52.35'
p3614
S'         4.90'
p3615
tp3616
sS'12.235.156.126'
p3617
(S'          40.86'
p3618
S'         -74.41'
p3619
tp3620
sS'212.159.100.23'
p3621
(S'          53.38'
p3622
S'         -1.50'
p3623
tp3624
sS'65.100.16.191'
p3625
(S'          45.00'
p3626
S'         -93.26'
p3627
tp3628
sS'142.177.177.223'
p3629
(S'          45.42'
p3630
S'         -75.72'
p3631
tp3632
sS'24.70.159.26'
p3633
(S'          51.08'
p3634
S'         -114.08'
p3635
tp3636
sS'68.108.38.167'
p3637
(S'          33.87'
p3638
S'         -84.34'
p3639
tp3640
sS'216.209.109.82'
p3641
(S'          45.42'
p3642
S'         -75.72'
p3643
tp3644
sS'64.165.227.25'
p3645
(S'          37.78'
p3646
S'         -122.42'
p3647
tp3648
sS'172.144.27.224'
p3649
(S'          38.93'
p3650
S'         -77.26'
p3651
tp3652
sS'81.32.161.2'
p3653
(S'          52.35'
p3654
S'         4.90'
p3655
tp3656
sS'80.32.107.134'
p3657
(S'          40.00'
p3658
S'         -4.00'
p3659
tp3660
sS'128.195.105.47'
p3661
(S'          33.69'
p3662
S'         -117.80'
p3663
tp3664
sS'68.109.163.175'
p3665
(S'          -25.00'
p3666
S'         135.00'
p3667
tp3668
sS'24.193.121.64'
p3669
(S'          -35.32'
p3670
S'         150.40'
p3671
tp3672
sS'24.88.51.103'
p3673
(S'          38.98'
p3674
S'         -77.39'
p3675
tp3676
sS'213.225.93.174'
p3677
(S'          63.20'
p3678
S'         9.75'
p3679
tp3680
sS'38.150.17.249'
p3681
(S'          38.96'
p3682
S'         -77.34'
p3683
tp3684
sS'193.251.33.132'
p3685
(S'          48.82'
p3686
S'         2.27'
p3687
tp3688
sS'81.64.88.228'
p3689
(S'          52.35'
p3690
S'         4.90'
p3691
tp3692
sS'64.251.73.185'
p3693
(S'          51.08'
p3694
S'         -114.08'
p3695
tp3696
sS'80.2.205.18'
p3697
(S'          52.35'
p3698
S'         4.90'
p3699
tp3700
sS'192.246.232.118'
p3701
(S'          38.00'
p3702
S'         -98.00'
p3703
tp3704
sS'217.236.13.143'
p3705
(S'          52.35'
p3706
S'         4.90'
p3707
tp3708
sS'163.120.196.216'
p3709
(S'          39.65'
p3710
S'         -86.87'
p3711
tp3712
sS'65.37.71.77'
p3713
(S'          43.16'
p3714
S'         -77.61'
p3715
tp3716
sS'67.168.185.138'
p3717
(S'          38.88'
p3718
S'         -77.44'
p3719
tp3720
sS'217.122.224.122'
p3721
(S'          52.35'
p3722
S'         4.90'
p3723
tp3724
sS'80.110.92.229'
p3725
(S'          52.35'
p3726
S'         4.90'
p3727
tp3728
sS'24.82.58.220'
p3729
(S'          51.08'
p3730
S'         -114.08'
p3731
tp3732
sS'194.109.161.202'
p3733
(S'          52.35'
p3734
S'         4.90'
p3735
tp3736
sS'24.173.18.140'
p3737
(S'          -35.32'
p3738
S'         150.40'
p3739
tp3740
sS'24.201.238.193'
p3741
(S'          45.50'
p3742
S'         -73.60'
p3743
tp3744
sS'141.155.107.232'
p3745
(S'          38.94'
p3746
S'         -77.35'
p3747
tp3748
sS'68.237.44.42'
p3749
(S'          -25.00'
p3750
S'         135.00'
p3751
tp3752
sS'65.33.142.196'
p3753
(S'          38.98'
p3754
S'         -77.39'
p3755
tp3756
sS'24.206.94.159'
p3757
(S'          33.80'
p3758
S'         -84.39'
p3759
tp3760
sS'80.202.229.94'
p3761
(S'          52.35'
p3762
S'         4.90'
p3763
tp3764
sS'66.131.223.117'
p3765
(S'          -25.00'
p3766
S'         135.00'
p3767
tp3768
sS'63.228.201.63'
p3769
(S'          45.00'
p3770
S'         -93.26'
p3771
tp3772
sS'24.31.32.192'
p3773
(S'          38.98'
p3774
S'         -77.39'
p3775
tp3776
sS'68.65.223.35'
p3777
(S'          41.78'
p3778
S'         -78.00'
p3779
tp3780
sS'128.12.94.7'
p3781
(S'          37.42'
p3782
S'         -122.16'
p3783
tp3784
sS'66.116.70.209'
p3785
(S'          38.88'
p3786
S'         -77.44'
p3787
tp3788
sS'152.78.236.136'
p3789
(S'          50.90'
p3790
S'         -1.40'
p3791
tp3792
sS'140.192.181.225'
p3793
(S'          41.88'
p3794
S'         -87.63'
p3795
tp3796
sS'24.208.17.6'
p3797
(S'          38.98'
p3798
S'         -77.39'
p3799
tp3800
sS'68.108.177.136'
p3801
(S'          33.87'
p3802
S'         -84.34'
p3803
tp3804
sS'62.62.170.116'
p3805
(S'          52.35'
p3806
S'         4.90'
p3807
tp3808
sS'81.49.76.25'
p3809
(S'          52.35'
p3810
S'         4.90'
p3811
tp3812
sS'200.102.171.177'
p3813
(S'          -34.92'
p3814
S'         -56.17'
p3815
tp3816
sS'141.161.136.122'
p3817
(S'          38.91'
p3818
S'         -77.02'
p3819
tp3820
sS'132.198.242.118'
p3821
(S'          44.48'
p3822
S'         -73.20'
p3823
tp3824
sS'68.164.58.249'
p3825
(S'          38.88'
p3826
S'         -77.44'
p3827
tp3828
sS'68.168.175.138'
p3829
(S'          -25.00'
p3830
S'         135.00'
p3831
tp3832
sS'62.178.80.149'
p3833
(S'          52.35'
p3834
S'         4.90'
p3835
tp3836
sS'62.77.119.242'
p3837
(S'          52.35'
p3838
S'         4.90'
p3839
tp3840
sS'68.110.213.133'
p3841
(S'          38.88'
p3842
S'         -77.44'
p3843
tp3844
sS'82.64.119.72'
p3845
(S'          33.98'
p3846
S'         -118.45'
p3847
tp3848
sS'155.68.66.141'
p3849
(S'          40.03'
p3850
S'         -76.28'
p3851
tp3852
sS'62.100.63.86'
p3853
(S'          52.35'
p3854
S'         4.90'
p3855
tp3856
sS'213.193.168.110'
p3857
(S'          52.35'
p3858
S'         4.90'
p3859
tp3860
sS'80.128.114.151'
p3861
(S'          52.35'
p3862
S'         4.90'
p3863
tp3864
sS'128.148.185.235'
p3865
(S'          41.82'
p3866
S'         -71.42'
p3867
tp3868
sS'81.57.144.13'
p3869
(S'          52.35'
p3870
S'         4.90'
p3871
tp3872
sS'151.203.29.205'
p3873
(S'          38.94'
p3874
S'         -77.35'
p3875
tp3876
sS'218.186.4.51'
p3877
(S'          -35.32'
p3878
S'         150.40'
p3879
tp3880
sS'68.36.31.182'
p3881
(S'          40.60'
p3882
S'         -74.45'
p3883
tp3884
sS'68.82.225.91'
p3885
(S'          38.00'
p3886
S'         -98.00'
p3887
tp3888
sS'66.27.64.154'
p3889
(S'          38.98'
p3890
S'         -77.39'
p3891
tp3892
sS'161.184.160.32'
p3893
(S'          51.08'
p3894
S'         -114.08'
p3895
tp3896
sS'138.16.130.3'
p3897
(S'          41.82'
p3898
S'         -71.42'
p3899
tp3900
sS'24.224.182.217'
p3901
(S'          44.63'
p3902
S'         -63.58'
p3903
tp3904
sS'217.215.56.225'
p3905
(S'          62.00'
p3906
S'         15.00'
p3907
tp3908
sS'160.39.202.196'
p3909
(S'          41.01'
p3910
S'         -73.92'
p3911
tp3912
sS'209.206.153.89'
p3913
(S'          32.55'
p3914
S'         -92.04'
p3915
tp3916
sS'67.96.129.122'
p3917
(S'          41.26'
p3918
S'         -111.98'
p3919
tp3920
sS'203.190.86.74'
p3921
(S'          -35.32'
p3922
S'         150.40'
p3923
tp3924
sS'66.222.38.155'
p3925
(S'          43.07'
p3926
S'         -89.51'
p3927
tp3928
sS'209.142.163.67'
p3929
(S'          32.55'
p3930
S'         -92.04'
p3931
tp3932
sS'212.194.61.227'
p3933
(S'          52.35'
p3934
S'         4.90'
p3935
tp3936
sS'199.94.77.104'
p3937
(S'          42.35'
p3938
S'         -71.08'
p3939
tp3940
sS'69.144.4.227'
p3941
(S'          -25.00'
p3942
S'         135.00'
p3943
tp3944
sS'65.32.96.52'
p3945
(S'          38.98'
p3946
S'         -77.39'
p3947
tp3948
sS'204.19.5.251'
p3949
(S'          45.50'
p3950
S'         -73.60'
p3951
tp3952
sS'195.137.119.56'
p3953
(S'          52.35'
p3954
S'         4.90'
p3955
tp3956
sS'145.53.84.166'
p3957
(S'          52.50'
p3958
S'         5.75'
p3959
tp3960
sS'212.13.49.194'
p3961
(S'          52.35'
p3962
S'         4.90'
p3963
tp3964
sS'68.17.145.159'
p3965
(S'          33.93'
p3966
S'         -84.33'
p3967
tp3968
sS'213.17.23.171'
p3969
(S'          52.35'
p3970
S'         4.90'
p3971
tp3972
sS'69.0.126.56'
p3973
(S'          -25.00'
p3974
S'         135.00'
p3975
tp3976
sS'68.108.199.140'
p3977
(S'          33.87'
p3978
S'         -84.34'
p3979
tp3980
sS'65.31.176.60'
p3981
(S'          38.98'
p3982
S'         -77.39'
p3983
tp3984
sS'66.93.144.232'
p3985
(S'          47.62'
p3986
S'         -122.34'
p3987
tp3988
sS'61.21.124.125'
p3989
(S'          -35.32'
p3990
S'         150.40'
p3991
tp3992
sS'64.165.209.111'
p3993
(S'          37.79'
p3994
S'         -122.40'
p3995
tp3996
sS'149.152.154.31'
p3997
(S'          41.77'
p3998
S'         -72.70'
p3999
tp4000
sS'203.51.72.109'
p4001
(S'          -35.32'
p4002
S'         150.40'
p4003
tp4004
sS'129.241.83.191'
p4005
(S'          63.20'
p4006
S'         9.75'
p4007
tp4008
sS'209.162.138.36'
p4009
(S'          47.63'
p4010
S'         -122.35'
p4011
tp4012
sS'140.247.185.64'
p4013
(S'          42.38'
p4014
S'         -71.13'
p4015
tp4016
sS'24.138.78.6'
p4017
(S'          44.67'
p4018
S'         -63.58'
p4019
tp4020
sS'66.32.253.235'
p4021
(S'          34.15'
p4022
S'         -118.09'
p4023
tp4024
sS'24.51.160.191'
p4025
(S'          41.78'
p4026
S'         -78.00'
p4027
tp4028
sS'24.136.55.251'
p4029
(S'          29.65'
p4030
S'         -82.31'
p4031
tp4032
sS'81.129.36.189'
p4033
(S'          52.35'
p4034
S'         4.90'
p4035
tp4036
sS'80.56.13.94'
p4037
(S'          52.35'
p4038
S'         4.90'
p4039
tp4040
sS'62.243.116.228'
p4041
(S'          56.00'
p4042
S'         10.00'
p4043
tp4044
sS'68.64.44.105'
p4045
(S'          41.78'
p4046
S'         -78.00'
p4047
tp4048
sS'80.202.167.212'
p4049
(S'          52.35'
p4050
S'         4.90'
p4051
tp4052
sS'66.65.74.222'
p4053
(S'          38.98'
p4054
S'         -77.39'
p4055
tp4056
sS'62.166.8.94'
p4057
(S'          52.35'
p4058
S'         4.90'
p4059
tp4060
sS'12.233.48.245'
p4061
(S'          40.40'
p4062
S'         -74.11'
p4063
tp4064
sS'137.142.177.230'
p4065
(S'          44.69'
p4066
S'         -73.47'
p4067
tp4068
sS'18.248.2.195'
p4069
(S'          42.36'
p4070
S'         -71.10'
p4071
tp4072
sS'67.160.195.69'
p4073
(S'          -25.00'
p4074
S'         135.00'
p4075
tp4076
sS'80.176.249.123'
p4077
(S'          52.35'
p4078
S'         4.90'
p4079
tp4080
sS'24.29.149.181'
p4081
(S'          38.98'
p4082
S'         -77.39'
p4083
tp4084
sS'24.54.38.94'
p4085
(S'          41.78'
p4086
S'         -78.00'
p4087
tp4088
sS'216.38.189.44'
p4089
(S'          27.37'
p4090
S'         -82.54'
p4091
tp4092
sS'200.216.66.66'
p4093
(S'          -25.00'
p4094
S'         135.00'
p4095
tp4096
sS'66.54.236.7'
p4097
(S'          40.06'
p4098
S'         -75.40'
p4099
tp4100
sS'82.64.125.65'
p4101
(S'          33.98'
p4102
S'         -118.45'
p4103
tp4104
sS'12.236.218.201'
p4105
(S'          40.40'
p4106
S'         -74.11'
p4107
tp4108
sS'195.252.99.130'
p4109
(S'          44.83'
p4110
S'         20.50'
p4111
tp4112
sS'131.215.82.127'
p4113
(S'          34.15'
p4114
S'         -118.14'
p4115
tp4116
sS'66.11.173.16'
p4117
(S'          45.42'
p4118
S'         -75.72'
p4119
tp4120
sS'217.82.8.111'
p4121
(S'          52.35'
p4122
S'         4.90'
p4123
tp4124
sS'12.45.0.4'
p4125
(S'          40.75'
p4126
S'         -73.97'
p4127
tp4128
sS'24.198.63.140'
p4129
(S'          38.98'
p4130
S'         -77.39'
p4131
tp4132
sS'24.205.67.237'
p4133
(S'          34.17'
p4134
S'         -118.29'
p4135
tp4136
sS'172.199.41.130'
p4137
(S'          38.88'
p4138
S'         -77.44'
p4139
tp4140
sS'157.242.118.119'
p4141
(S'          33.96'
p4142
S'         -118.39'
p4143
tp4144
sS'24.25.15.222'
p4145
(S'          38.98'
p4146
S'         -77.39'
p4147
tp4148
sS'128.226.223.100'
p4149
(S'          42.15'
p4150
S'         -75.89'
p4151
tp4152
sS'24.102.209.225'
p4153
(S'          43.70'
p4154
S'         -79.42'
p4155
tp4156
sS'24.91.231.19'
p4157
(S'          38.00'
p4158
S'         -98.00'
p4159
tp4160
sS'68.194.113.158'
p4161
(S'          -25.00'
p4162
S'         135.00'
p4163
tp4164
sS'24.124.77.139'
p4165
(S'          38.96'
p4166
S'         -95.24'
p4167
tp4168
sS'81.56.221.143'
p4169
(S'          52.35'
p4170
S'         4.90'
p4171
tp4172
sS'68.187.132.166'
p4173
(S'          -25.00'
p4174
S'         135.00'
p4175
tp4176
sS'64.165.230.86'
p4177
(S'          37.76'
p4178
S'         -121.95'
p4179
tp4180
sS'128.180.198.92'
p4181
(S'          40.60'
p4182
S'         -75.38'
p4183
tp4184
sS'68.164.37.153'
p4185
(S'          -25.00'
p4186
S'         135.00'
p4187
tp4188
sS'65.26.218.61'
p4189
(S'          38.98'
p4190
S'         -77.39'
p4191
tp4192
sS'24.82.213.52'
p4193
(S'          51.08'
p4194
S'         -114.08'
p4195
tp4196
sS'66.131.43.193'
p4197
(S'          45.50'
p4198
S'         -73.60'
p4199
tp4200
sS'24.193.57.235'
p4201
(S'          38.98'
p4202
S'         -77.39'
p4203
tp4204
sS'66.215.167.82'
p4205
(S'          -25.00'
p4206
S'         135.00'
p4207
tp4208
sS'209.195.176.102'
p4209
(S'          40.63'
p4210
S'         -79.94'
p4211
tp4212
sS'24.67.150.13'
p4213
(S'          51.08'
p4214
S'         -114.08'
p4215
tp4216
sS'141.238.103.133'
p4217
(S'          42.43'
p4218
S'         -79.33'
p4219
tp4220
sS'138.28.147.47'
p4221
(S'          40.38'
p4222
S'         -82.38'
p4223
tp4224
sS'208.155.92.193'
p4225
(S'          61.19'
p4226
S'         -149.89'
p4227
tp4228
sS'24.202.183.136'
p4229
(S'          45.50'
p4230
S'         -73.60'
p4231
tp4232
sS'63.193.188.177'
p4233
(S'          37.79'
p4234
S'         -122.40'
p4235
tp4236
sS'141.108.5.172'
p4237
(S'          44.50'
p4238
S'         11.33'
p4239
tp4240
sS'66.56.56.57'
p4241
(S'          42.59'
p4242
S'         -71.36'
p4243
tp4244
sS'68.122.126.96'
p4245
(S'          38.88'
p4246
S'         -77.44'
p4247
tp4248
sS'216.133.69.40'
p4249
(S'          33.68'
p4250
S'         -117.91'
p4251
tp4252
sS'66.66.118.32'
p4253
(S'          38.98'
p4254
S'         -77.39'
p4255
tp4256
sS'198.82.115.63'
p4257
(S'          37.23'
p4258
S'         -80.43'
p4259
tp4260
sS'200.88.61.195'
p4261
(S'          -25.00'
p4262
S'         135.00'
p4263
tp4264
sS'66.93.40.141'
p4265
(S'          47.61'
p4266
S'         -122.31'
p4267
tp4268
sS'68.40.255.18'
p4269
(S'          41.98'
p4270
S'         -84.65'
p4271
tp4272
sS'212.187.109.6'
p4273
(S'          53.20'
p4274
S'         5.80'
p4275
tp4276
sS'203.122.95.142'
p4277
(S'          -35.32'
p4278
S'         150.40'
p4279
tp4280
sS'67.72.207.125'
p4281
(S'          39.98'
p4282
S'         -105.15'
p4283
tp4284
sS'207.6.50.113'
p4285
(S'          45.42'
p4286
S'         -75.72'
p4287
tp4288
sS'219.95.167.134'
p4289
(S'          -35.32'
p4290
S'         150.40'
p4291
tp4292
sS'213.66.175.196'
p4293
(S'          52.35'
p4294
S'         4.90'
p4295
tp4296
sS'81.74.51.234'
p4297
(S'          52.35'
p4298
S'         4.90'
p4299
tp4300
sS'24.202.54.122'
p4301
(S'          45.50'
p4302
S'         -73.60'
p4303
tp4304
sS'151.38.119.17'
p4305
(S'          42.83'
p4306
S'         12.83'
p4307
tp4308
sS'142.103.48.95'
p4309
(S'          49.22'
p4310
S'         -123.10'
p4311
tp4312
sS'24.200.128.30'
p4313
(S'          45.50'
p4314
S'         -73.60'
p4315
tp4316
sS'209.210.42.77'
p4317
(S'          47.60'
p4318
S'         -122.33'
p4319
tp4320
sS'62.155.178.19'
p4321
(S'          49.87'
p4322
S'         8.65'
p4323
tp4324
sS'216.114.17.46'
p4325
(S'          43.46'
p4326
S'         -88.84'
p4327
tp4328
sS'64.229.238.92'
p4329
(S'          46.83'
p4330
S'         -71.25'
p4331
tp4332
sS'216.204.111.20'
p4333
(S'          43.52'
p4334
S'         -70.39'
p4335
tp4336
sS'213.46.6.59'
p4337
(S'          52.35'
p4338
S'         4.90'
p4339
tp4340
sS'81.96.67.169'
p4341
(S'          52.35'
p4342
S'         4.90'
p4343
tp4344
sS'162.40.173.37'
p4345
(S'          40.79'
p4346
S'         -96.69'
p4347
tp4348
sS'66.74.90.197'
p4349
(S'          38.98'
p4350
S'         -77.39'
p4351
tp4352
sS'24.130.85.141'
p4353
(S'          42.59'
p4354
S'         -71.36'
p4355
tp4356
sS'195.78.22.68'
p4357
(S'          52.35'
p4358
S'         4.90'
p4359
tp4360
sS'67.112.24.79'
p4361
(S'          37.76'
p4362
S'         -121.95'
p4363
tp4364
sS'24.192.31.227'
p4365
(S'          43.70'
p4366
S'         -79.42'
p4367
tp4368
sS'210.139.206.217'
p4369
(S'          -35.32'
p4370
S'         150.40'
p4371
tp4372
sS'65.165.175.253'
p4373
(S'          34.40'
p4374
S'         -118.55'
p4375
tp4376
sS'81.37.199.227'
p4377
(S'          52.35'
p4378
S'         4.90'
p4379
tp4380
sS'192.117.102.233'
p4381
(S'          32.82'
p4382
S'         34.98'
p4383
tp4384
sS'81.49.242.146'
p4385
(S'          52.35'
p4386
S'         4.90'
p4387
tp4388
sS'80.186.81.238'
p4389
(S'          52.35'
p4390
S'         4.90'
p4391
tp4392
sS'66.228.143.50'
p4393
(S'          33.15'
p4394
S'         -96.82'
p4395
tp4396
sS'24.238.57.164'
p4397
(S'          -35.32'
p4398
S'         150.40'
p4399
tp4400
sS'65.102.43.89'
p4401
(S'          45.00'
p4402
S'         -93.26'
p4403
tp4404
sS'80.5.53.40'
p4405
(S'          52.35'
p4406
S'         4.90'
p4407
tp4408
sS'65.60.139.152'
p4409
(S'          -25.00'
p4410
S'         135.00'
p4411
tp4412
sS'68.119.223.218'
p4413
(S'          38.88'
p4414
S'         -77.44'
p4415
tp4416
sS'68.35.133.10'
p4417
(S'          35.15'
p4418
S'         -106.57'
p4419
tp4420
sS'12.247.29.134'
p4421
(S'          40.86'
p4422
S'         -74.41'
p4423
tp4424
sS'24.171.151.3'
p4425
(S'          33.80'
p4426
S'         -84.39'
p4427
tp4428
sS'80.142.222.202'
p4429
(S'          52.35'
p4430
S'         4.90'
p4431
tp4432
sS'219.95.202.195'
p4433
(S'          -35.32'
p4434
S'         150.40'
p4435
tp4436
sS'12.251.128.163'
p4437
(S'          40.86'
p4438
S'         -74.41'
p4439
tp4440
sS'81.9.129.167'
p4441
(S'          43.35'
p4442
S'         -5.83'
p4443
tp4444
sS'62.216.13.192'
p4445
(S'          52.35'
p4446
S'         4.90'
p4447
tp4448
sS'63.195.90.96'
p4449
(S'          37.76'
p4450
S'         -122.40'
p4451
tp4452
sS'68.63.250.146'
p4453
(S'          37.06'
p4454
S'         -88.66'
p4455
tp4456
sS'24.126.0.249'
p4457
(S'          42.59'
p4458
S'         -71.36'
p4459
tp4460
sS'206.208.133.51'
p4461
(S'          34.04'
p4462
S'         -117.18'
p4463
tp4464
sS'68.186.232.50'
p4465
(S'          -25.00'
p4466
S'         135.00'
p4467
tp4468
sS'4.4.61.92'
p4469
(S'          42.48'
p4470
S'         -71.16'
p4471
tp4472
sS'4.40.187.55'
p4473
(S'          34.15'
p4474
S'         -118.09'
p4475
tp4476
sS'69.37.7.240'
p4477
(S'          -25.00'
p4478
S'         135.00'
p4479
tp4480
sS'142.103.44.112'
p4481
(S'          49.22'
p4482
S'         -123.10'
p4483
tp4484
sS'65.64.191.223'
p4485
(S'          33.03'
p4486
S'         -96.74'
p4487
tp4488
sS'206.116.39.31'
p4489
(S'          49.27'
p4490
S'         -122.97'
p4491
tp4492
sS'217.236.13.32'
p4493
(S'          52.35'
p4494
S'         4.90'
p4495
tp4496
sS'203.59.113.213'
p4497
(S'          -35.32'
p4498
S'         150.40'
p4499
tp4500
sS'212.40.244.204'
p4501
(S'          52.35'
p4502
S'         4.90'
p4503
tp4504
sS'24.108.225.154'
p4505
(S'          53.57'
p4506
S'         -113.42'
p4507
tp4508
sS'24.98.139.134'
p4509
(S'          42.59'
p4510
S'         -71.36'
p4511
tp4512
sS'213.78.98.123'
p4513
(S'          51.50'
p4514
S'         -0.17'
p4515
tp4516
sS'62.202.90.159'
p4517
(S'          52.35'
p4518
S'         4.90'
p4519
tp4520
sS'193.11.250.189'
p4521
(S'          52.35'
p4522
S'         4.90'
p4523
tp4524
sS'66.57.78.162'
p4525
(S'          38.98'
p4526
S'         -77.39'
p4527
tp4528
sS'212.97.52.90'
p4529
(S'          45.47'
p4530
S'         9.20'
p4531
tp4532
sS'195.186.161.103'
p4533
(S'          47.38'
p4534
S'         8.55'
p4535
tp4536
sS'142.103.45.215'
p4537
(S'          49.22'
p4538
S'         -123.10'
p4539
tp4540
sS'24.165.157.171'
p4541
(S'          38.98'
p4542
S'         -77.39'
p4543
tp4544
sS'68.161.221.60'
p4545
(S'          38.88'
p4546
S'         -77.44'
p4547
tp4548
sS'217.128.231.244'
p4549
(S'          50.72'
p4550
S'         1.62'
p4551
tp4552
sS'160.228.122.9'
p4553
(S'          46.00'
p4554
S'         2.00'
p4555
tp4556
sS'24.66.219.53'
p4557
(S'          51.08'
p4558
S'         -114.08'
p4559
tp4560
sS'24.201.197.141'
p4561
(S'          45.50'
p4562
S'         -73.60'
p4563
tp4564
sS'129.68.36.240'
p4565
(S'          39.98'
p4566
S'         -75.23'
p4567
tp4568
sS'62.84.221.227'
p4569
(S'          62.00'
p4570
S'         15.00'
p4571
tp4572
sS'68.13.121.6'
p4573
(S'          33.87'
p4574
S'         -84.34'
p4575
tp4576
sS'66.245.65.252'
p4577
(S'          34.15'
p4578
S'         -118.09'
p4579
tp4580
sS'217.255.175.104'
p4581
(S'          52.35'
p4582
S'         4.90'
p4583
tp4584
sS'66.92.29.175'
p4585
(S'          47.62'
p4586
S'         -122.34'
p4587
tp4588
sS'217.231.114.143'
p4589
(S'          51.50'
p4590
S'         10.50'
p4591
tp4592
sS'81.18.70.119'
p4593
(S'          46.17'
p4594
S'         21.32'
p4595
tp4596
sS'24.221.190.108'
p4597
(S'          37.33'
p4598
S'         -121.89'
p4599
tp4600
sS'217.128.255.215'
p4601
(S'          48.82'
p4602
S'         2.27'
p4603
tp4604
sS'67.67.92.81'
p4605
(S'          38.88'
p4606
S'         -77.44'
p4607
tp4608
sS'217.186.6.23'
p4609
(S'          52.35'
p4610
S'         4.90'
p4611
tp4612
sS'68.81.191.18'
p4613
(S'          39.93'
p4614
S'         -75.02'
p4615
tp4616
sS'151.42.76.38'
p4617
(S'          45.47'
p4618
S'         9.20'
p4619
tp4620
sS'62.129.179.51'
p4621
(S'          52.35'
p4622
S'         4.90'
p4623
tp4624
sS'68.107.85.241'
p4625
(S'          33.87'
p4626
S'         -84.34'
p4627
tp4628
sS'68.8.162.209'
p4629
(S'          33.87'
p4630
S'         -84.34'
p4631
tp4632
sS'65.37.54.151'
p4633
(S'          43.16'
p4634
S'         -77.61'
p4635
tp4636
sS'66.8.249.220'
p4637
(S'          38.98'
p4638
S'         -77.39'
p4639
tp4640
sS'68.121.121.179'
p4641
(S'          38.88'
p4642
S'         -77.44'
p4643
tp4644
sS'147.4.221.208'
p4645
(S'          40.70'
p4646
S'         -73.62'
p4647
tp4648
sS'24.25.220.196'
p4649
(S'          38.98'
p4650
S'         -77.39'
p4651
tp4652
sS'172.195.16.15'
p4653
(S'          38.93'
p4654
S'         -77.26'
p4655
tp4656
sS'24.90.248.81'
p4657
(S'          38.98'
p4658
S'         -77.39'
p4659
tp4660
sS'68.42.3.100'
p4661
(S'          41.98'
p4662
S'         -84.65'
p4663
tp4664
sS'137.122.75.48'
p4665
(S'          45.42'
p4666
S'         -75.72'
p4667
tp4668
sS'24.132.112.240'
p4669
(S'          52.35'
p4670
S'         4.90'
p4671
tp4672
sS'203.56.186.32'
p4673
(S'          -25.00'
p4674
S'         135.00'
p4675
tp4676
sS'80.212.38.65'
p4677
(S'          52.35'
p4678
S'         4.90'
p4679
tp4680
sS'24.77.120.86'
p4681
(S'          51.08'
p4682
S'         -114.08'
p4683
tp4684
sS'12.250.121.226'
p4685
(S'          40.40'
p4686
S'         -74.11'
p4687
tp4688
sS'213.84.42.14'
p4689
(S'          52.35'
p4690
S'         4.90'
p4691
tp4692
sS'66.66.45.184'
p4693
(S'          38.98'
p4694
S'         -77.39'
p4695
tp4696
sS'137.150.254.89'
p4697
(S'          40.90'
p4698
S'         -124.08'
p4699
tp4700
sS'216.75.186.64'
p4701
(S'          43.45'
p4702
S'         -80.50'
p4703
tp4704
sS'66.191.2.236'
p4705
(S'          38.61'
p4706
S'         -90.44'
p4707
tp4708
sS'200.165.193.38'
p4709
(S'          -34.92'
p4710
S'         -56.17'
p4711
tp4712
sS'216.46.17.146'
p4713
(S'          45.50'
p4714
S'         -73.60'
p4715
tp4716
sS'65.81.6.47'
p4717
(S'          33.93'
p4718
S'         -84.33'
p4719
tp4720
sS'144.137.215.135'
p4721
(S'          -34.93'
p4722
S'         138.60'
p4723
tp4724
sS'67.65.4.157'
p4725
(S'          -25.00'
p4726
S'         135.00'
p4727
tp4728
sS'193.137.229.177'
p4729
(S'          38.73'
p4730
S'         -9.13'
p4731
tp4732
sS'61.21.98.34'
p4733
(S'          -35.32'
p4734
S'         150.40'
p4735
tp4736
sS'81.35.26.178'
p4737
(S'          52.35'
p4738
S'         4.90'
p4739
tp4740
sS'217.228.98.251'
p4741
(S'          52.35'
p4742
S'         4.90'
p4743
tp4744
sS'68.161.106.48'
p4745
(S'          38.94'
p4746
S'         -77.35'
p4747
tp4748
sS'220.240.65.144'
p4749
(S'          -35.32'
p4750
S'         150.40'
p4751
tp4752
sS'142.59.239.96'
p4753
(S'          60.00'
p4754
S'         -96.00'
p4755
tp4756
sS'141.158.192.193'
p4757
(S'          38.94'
p4758
S'         -77.35'
p4759
tp4760
sS'24.61.18.19'
p4761
(S'          42.59'
p4762
S'         -71.36'
p4763
tp4764
sS'62.131.10.238'
p4765
(S'          52.35'
p4766
S'         4.90'
p4767
tp4768
sS'218.219.240.44'
p4769
(S'          -35.32'
p4770
S'         150.40'
p4771
tp4772
sS'217.234.186.109'
p4773
(S'          52.35'
p4774
S'         4.90'
p4775
tp4776
sS'68.73.95.163'
p4777
(S'          38.88'
p4778
S'         -77.44'
p4779
tp4780
sS'207.236.140.28'
p4781
(S'          45.70'
p4782
S'         -73.62'
p4783
tp4784
sS'81.224.43.44'
p4785
(S'          52.35'
p4786
S'         4.90'
p4787
tp4788
sS'80.15.107.198'
p4789
(S'          48.58'
p4790
S'         7.75'
p4791
tp4792
sS'128.12.68.31'
p4793
(S'          37.42'
p4794
S'         -122.16'
p4795
tp4796
sS'144.137.30.158'
p4797
(S'          -37.75'
p4798
S'         144.97'
p4799
tp4800
sS'67.87.179.32'
p4801
(S'          -25.00'
p4802
S'         135.00'
p4803
tp4804
sS'18.240.6.149'
p4805
(S'          42.36'
p4806
S'         -71.10'
p4807
tp4808
sS'65.38.5.26'
p4809
(S'          36.14'
p4810
S'         -95.99'
p4811
tp4812
sS'210.86.61.171'
p4813
(S'          -35.32'
p4814
S'         150.40'
p4815
tp4816
sS'81.218.110.34'
p4817
(S'          52.35'
p4818
S'         4.90'
p4819
tp4820
sS'216.68.109.229'
p4821
(S'          39.11'
p4822
S'         -84.50'
p4823
tp4824
sS'62.195.224.83'
p4825
(S'          52.35'
p4826
S'         4.90'
p4827
tp4828
sS'66.108.56.52'
p4829
(S'          38.98'
p4830
S'         -77.39'
p4831
tp4832
sS'24.230.217.208'
p4833
(S'          -35.32'
p4834
S'         150.40'
p4835
tp4836
sS'212.129.142.147'
p4837
(S'          52.35'
p4838
S'         4.90'
p4839
tp4840
sS'131.174.205.173'
p4841
(S'          51.83'
p4842
S'         5.87'
p4843
tp4844
sS'131.211.141.77'
p4845
(S'          52.10'
p4846
S'         5.12'
p4847
tp4848
sS'132.198.243.112'
p4849
(S'          44.48'
p4850
S'         -73.20'
p4851
tp4852
sS'66.183.173.42'
p4853
(S'          49.27'
p4854
S'         -122.97'
p4855
tp4856
sS'141.157.41.73'
p4857
(S'          38.94'
p4858
S'         -77.35'
p4859
tp4860
sS'213.146.116.67'
p4861
(S'          52.35'
p4862
S'         4.90'
p4863
tp4864
sS'80.111.148.229'
p4865
(S'          52.35'
p4866
S'         4.90'
p4867
tp4868
sS'12.230.42.208'
p4869
(S'          40.40'
p4870
S'         -74.11'
p4871
tp4872
sS'81.86.76.10'
p4873
(S'          52.35'
p4874
S'         4.90'
p4875
tp4876
sS'68.161.207.102'
p4877
(S'          38.88'
p4878
S'         -77.44'
p4879
tp4880
sS'80.57.107.187'
p4881
(S'          52.35'
p4882
S'         4.90'
p4883
tp4884
sS'169.233.4.26'
p4885
(S'          37.00'
p4886
S'         -122.06'
p4887
tp4888
sS'68.33.252.68'
p4889
(S'          39.39'
p4890
S'         -76.49'
p4891
tp4892
sS'218.103.240.186'
p4893
(S'          -35.32'
p4894
S'         150.40'
p4895
tp4896
sS'209.142.155.49'
p4897
(S'          32.55'
p4898
S'         -92.04'
p4899
tp4900
sS'219.95.152.62'
p4901
(S'          -35.32'
p4902
S'         150.40'
p4903
tp4904
sS'24.59.79.242'
p4905
(S'          38.98'
p4906
S'         -77.39'
p4907
tp4908
sS'66.122.54.149'
p4909
(S'          37.79'
p4910
S'         -122.40'
p4911
tp4912
sS'80.61.10.152'
p4913
(S'          52.35'
p4914
S'         4.90'
p4915
tp4916
sS'218.51.148.68'
p4917
(S'          -35.32'
p4918
S'         150.40'
p4919
tp4920
sS'65.66.70.121'
p4921
(S'          33.03'
p4922
S'         -96.74'
p4923
tp4924
sS'205.240.155.242'
p4925
(S'          29.30'
p4926
S'         -82.13'
p4927
tp4928
sS'80.181.158.226'
p4929
(S'          52.35'
p4930
S'         4.90'
p4931
tp4932
sS'64.30.189.30'
p4933
(S'          -25.00'
p4934
S'         135.00'
p4935
tp4936
sS'212.149.192.146'
p4937
(S'          52.35'
p4938
S'         4.90'
p4939
tp4940
sS'4.62.120.25'
p4941
(S'          42.38'
p4942
S'         -71.13'
p4943
tp4944
sS'67.121.139.204'
p4945
(S'          37.76'
p4946
S'         -121.95'
p4947
tp4948
sS'68.40.192.185'
p4949
(S'          39.93'
p4950
S'         -75.02'
p4951
tp4952
sS'216.99.101.233'
p4953
(S'          42.97'
p4954
S'         -81.25'
p4955
tp4956
sS'24.33.202.50'
p4957
(S'          -35.32'
p4958
S'         150.40'
p4959
tp4960
sS'128.230.221.118'
p4961
(S'          43.04'
p4962
S'         -76.15'
p4963
tp4964
sS'24.68.221.225'
p4965
(S'          51.08'
p4966
S'         -114.08'
p4967
tp4968
sS'141.222.110.20'
p4969
(S'          43.08'
p4970
S'         -73.78'
p4971
tp4972
sS'69.9.204.20'
p4973
(S'          -25.00'
p4974
S'         135.00'
p4975
tp4976
sS'24.192.64.200'
p4977
(S'          43.70'
p4978
S'         -79.42'
p4979
tp4980
sS'142.176.58.109'
p4981
(S'          45.42'
p4982
S'         -75.72'
p4983
tp4984
sS'200.213.223.238'
p4985
(S'          -25.00'
p4986
S'         135.00'
p4987
tp4988
sS'134.58.253.225'
p4989
(S'          50.87'
p4990
S'         4.70'
p4991
tp4992
sS'66.41.106.7'
p4993
(S'          42.59'
p4994
S'         -71.36'
p4995
tp4996
sS'219.184.120.141'
p4997
(S'          -35.32'
p4998
S'         150.40'
p4999
tp5000
sS'199.203.13.225'
p5001
(S'          40.76'
p5002
S'         -73.97'
p5003
tp5004
sS'65.33.160.161'
p5005
(S'          38.98'
p5006
S'         -77.39'
p5007
tp5008
sS'24.54.196.170'
p5009
(S'          41.78'
p5010
S'         -78.00'
p5011
tp5012
sS'68.171.140.111'
p5013
(S'          -25.00'
p5014
S'         135.00'
p5015
tp5016
sS'137.165.210.93'
p5017
(S'          42.71'
p5018
S'         -73.20'
p5019
tp5020
sS'132.177.59.199'
p5021
(S'          43.13'
p5022
S'         -70.95'
p5023
tp5024
sS'82.82.136.69'
p5025
(S'          33.98'
p5026
S'         -118.45'
p5027
tp5028
sS'202.0.40.41'
p5029
(S'          -35.32'
p5030
S'         150.40'
p5031
tp5032
sS'80.61.97.110'
p5033
(S'          52.35'
p5034
S'         4.90'
p5035
tp5036
sS'217.133.237.114'
p5037
(S'          39.22'
p5038
S'         9.13'
p5039
tp5040
sS'81.64.112.3'
p5041
(S'          52.35'
p5042
S'         4.90'
p5043
tp5044
sS'12.233.34.225'
p5045
(S'          40.86'
p5046
S'         -74.41'
p5047
tp5048
sS'69.47.35.160'
p5049
(S'          -25.00'
p5050
S'         135.00'
p5051
tp5052
sS'64.203.1.95'
p5053
(S'          -25.00'
p5054
S'         135.00'
p5055
tp5056
sS'68.154.199.153'
p5057
(S'          33.93'
p5058
S'         -84.33'
p5059
tp5060
sS'66.32.229.47'
p5061
(S'          34.15'
p5062
S'         -118.09'
p5063
tp5064
sS'12.228.144.50'
p5065
(S'          40.40'
p5066
S'         -74.11'
p5067
tp5068
sS'12.236.202.176'
p5069
(S'          40.40'
p5070
S'         -74.11'
p5071
tp5072
sS'212.158.196.163'
p5073
(S'          52.35'
p5074
S'         4.90'
p5075
tp5076
sS'81.173.128.208'
p5077
(S'          52.35'
p5078
S'         4.90'
p5079
tp5080
sS'131.230.69.214'
p5081
(S'          37.72'
p5082
S'         -89.22'
p5083
tp5084
sS'67.161.220.240'
p5085
(S'          -25.00'
p5086
S'         135.00'
p5087
tp5088
sS'80.8.89.142'
p5089
(S'          52.35'
p5090
S'         4.90'
p5091
tp5092
sS'65.48.170.253'
p5093
(S'          43.70'
p5094
S'         -79.42'
p5095
tp5096
sS'137.132.213.128'
p5097
(S'          1.37'
p5098
S'         103.80'
p5099
tp5100
sS'153.90.114.0'
p5101
(S'          45.67'
p5102
S'         -111.04'
p5103
tp5104
sS'24.238.56.145'
p5105
(S'          -35.32'
p5106
S'         150.40'
p5107
tp5108
sS'80.145.51.173'
p5109
(S'          52.35'
p5110
S'         4.90'
p5111
tp5112
sS'81.107.196.163'
p5113
(S'          52.35'
p5114
S'         4.90'
p5115
tp5116
sS'204.210.204.249'
p5117
(S'          38.98'
p5118
S'         -77.39'
p5119
tp5120
sS'64.119.138.3'
p5121
(S'          42.35'
p5122
S'         -71.10'
p5123
tp5124
sS'141.225.225.64'
p5125
(S'          35.14'
p5126
S'         -90.05'
p5127
tp5128
sS'68.49.67.158'
p5129
(S'          39.93'
p5130
S'         -75.02'
p5131
tp5132
sS'202.180.94.44'
p5133
(S'          -35.32'
p5134
S'         150.40'
p5135
tp5136
sS'80.177.97.158'
p5137
(S'          52.35'
p5138
S'         4.90'
p5139
tp5140
sS'195.186.188.173'
p5141
(S'          47.38'
p5142
S'         8.55'
p5143
tp5144
sS'211.212.18.240'
p5145
(S'          37.53'
p5146
S'         127.00'
p5147
tp5148
sS'142.173.237.158'
p5149
(S'          45.42'
p5150
S'         -75.72'
p5151
tp5152
sS'213.17.32.218'
p5153
(S'          52.35'
p5154
S'         4.90'
p5155
tp5156
sS'203.51.86.78'
p5157
(S'          -35.32'
p5158
S'         150.40'
p5159
tp5160
sS'68.147.25.221'
p5161
(S'          51.08'
p5162
S'         -114.08'
p5163
tp5164
sS'68.89.144.77'
p5165
(S'          38.88'
p5166
S'         -77.44'
p5167
tp5168
sS'200.204.200.86'
p5169
(S'          -25.00'
p5170
S'         135.00'
p5171
tp5172
sS'63.60.228.220'
p5173
(S'          39.04'
p5174
S'         -77.48'
p5175
tp5176
sS'80.186.66.160'
p5177
(S'          52.35'
p5178
S'         4.90'
p5179
tp5180
sS'61.126.227.5'
p5181
(S'          -35.32'
p5182
S'         150.40'
p5183
tp5184
sS'209.195.153.35'
p5185
(S'          40.63'
p5186
S'         -79.94'
p5187
tp5188
sS'137.186.240.115'
p5189
(S'          49.27'
p5190
S'         -122.97'
p5191
tp5192
sS'218.214.18.16'
p5193
(S'          -35.32'
p5194
S'         150.40'
p5195
tp5196
sS'24.243.222.168'
p5197
(S'          38.98'
p5198
S'         -77.39'
p5199
tp5200
sS'24.112.212.17'
p5201
(S'          43.70'
p5202
S'         -79.42'
p5203
tp5204
sS'62.101.126.233'
p5205
(S'          52.35'
p5206
S'         4.90'
p5207
tp5208
sS'194.47.253.233'
p5209
(S'          52.35'
p5210
S'         4.90'
p5211
tp5212
sS'82.68.52.78'
p5213
(S'          33.98'
p5214
S'         -118.45'
p5215
tp5216
sS'151.197.185.153'
p5217
(S'          38.94'
p5218
S'         -77.35'
p5219
tp5220
sS'210.144.27.36'
p5221
(S'          -35.32'
p5222
S'         150.40'
p5223
tp5224
sS'209.189.136.61'
p5225
(S'          35.08'
p5226
S'         -106.62'
p5227
tp5228
sS'206.72.6.253'
p5229
(S'          41.89'
p5230
S'         -95.24'
p5231
tp5232
sS'218.186.182.119'
p5233
(S'          -35.32'
p5234
S'         150.40'
p5235
tp5236
sS'80.11.151.124'
p5237
(S'          48.82'
p5238
S'         2.27'
p5239
tp5240
sS'129.173.194.89'
p5241
(S'          44.63'
p5242
S'         -63.58'
p5243
tp5244
sS'80.13.103.182'
p5245
(S'          48.00'
p5246
S'         0.20'
p5247
tp5248
sS'199.17.65.24'
p5249
(S'          44.15'
p5250
S'         -94.00'
p5251
tp5252
sS'62.3.230.192'
p5253
(S'          52.35'
p5254
S'         4.90'
p5255
tp5256
sS'128.138.8.201'
p5257
(S'          40.05'
p5258
S'         -105.21'
p5259
tp5260
sS'66.142.186.76'
p5261
(S'          33.03'
p5262
S'         -96.74'
p5263
tp5264
sS'61.171.250.190'
p5265
(S'          -35.32'
p5266
S'         150.40'
p5267
tp5268
sS'128.151.130.102'
p5269
(S'          43.16'
p5270
S'         -77.61'
p5271
tp5272
sS'24.53.237.108'
p5273
(S'          41.78'
p5274
S'         -78.00'
p5275
tp5276
sS'217.42.211.82'
p5277
(S'          52.35'
p5278
S'         4.90'
p5279
tp5280
sS'24.226.106.147'
p5281
(S'          49.77'
p5282
S'         -56.00'
p5283
tp5284
sS'12.234.205.123'
p5285
(S'          40.86'
p5286
S'         -74.41'
p5287
tp5288
sS'194.236.111.132'
p5289
(S'          52.35'
p5290
S'         4.90'
p5291
tp5292
sS'66.58.226.253'
p5293
(S'          61.19'
p5294
S'         -149.89'
p5295
tp5296
sS'149.169.125.209'
p5297
(S'          33.42'
p5298
S'         -111.93'
p5299
tp5300
sS'81.59.136.84'
p5301
(S'          52.35'
p5302
S'         4.90'
p5303
tp5304
sS'200.71.68.146'
p5305
(S'          -34.92'
p5306
S'         -56.17'
p5307
tp5308
sS'200.171.81.203'
p5309
(S'          -25.00'
p5310
S'         135.00'
p5311
tp5312
sS'216.178.93.164'
p5313
(S'          40.24'
p5314
S'         -75.30'
p5315
tp5316
sS'66.191.115.155'
p5317
(S'          38.61'
p5318
S'         -90.44'
p5319
tp5320
sS'68.202.213.17'
p5321
(S'          38.88'
p5322
S'         -77.44'
p5323
tp5324
sS'141.161.137.149'
p5325
(S'          38.91'
p5326
S'         -77.02'
p5327
tp5328
sS'217.128.157.149'
p5329
(S'          44.83'
p5330
S'         -0.57'
p5331
tp5332
sS'208.180.145.143'
p5333
(S'          35.17'
p5334
S'         -101.89'
p5335
tp5336
sS'24.232.76.43'
p5337
(S'          -34.67'
p5338
S'         -58.50'
p5339
tp5340
sS'195.86.10.68'
p5341
(S'          52.50'
p5342
S'         5.75'
p5343
tp5344
sS'151.204.197.131'
p5345
(S'          38.94'
p5346
S'         -77.35'
p5347
tp5348
sS'24.69.197.25'
p5349
(S'          51.08'
p5350
S'         -114.08'
p5351
tp5352
sS'68.202.175.171'
p5353
(S'          -25.00'
p5354
S'         135.00'
p5355
tp5356
sS'68.114.164.92'
p5357
(S'          38.61'
p5358
S'         -90.44'
p5359
tp5360
sS'203.173.164.189'
p5361
(S'          -36.92'
p5362
S'         174.78'
p5363
tp5364
sS'134.139.194.115'
p5365
(S'          33.77'
p5366
S'         -118.18'
p5367
tp5368
sS'165.123.165.35'
p5369
(S'          39.96'
p5370
S'         -75.20'
p5371
tp5372
sS'68.102.54.190'
p5373
(S'          33.94'
p5374
S'         -84.32'
p5375
tp5376
sS'66.228.143.61'
p5377
(S'          33.15'
p5378
S'         -96.82'
p5379
tp5380
sS'207.6.242.55'
p5381
(S'          45.42'
p5382
S'         -75.72'
p5383
tp5384
sS'218.221.113.20'
p5385
(S'          -35.32'
p5386
S'         150.40'
p5387
tp5388
sS'66.117.227.246'
p5389
(S'          38.88'
p5390
S'         -77.44'
p5391
tp5392
sS'141.140.120.89'
p5393
(S'          44.93'
p5394
S'         -93.17'
p5395
tp5396
sS'68.161.209.146'
p5397
(S'          -25.00'
p5398
S'         135.00'
p5399
tp5400
sS'217.97.79.81'
p5401
(S'          49.78'
p5402
S'         22.78'
p5403
tp5404
sS'66.156.232.187'
p5405
(S'          33.93'
p5406
S'         -84.33'
p5407
tp5408
sS'207.106.89.46'
p5409
(S'          40.72'
p5410
S'         -74.00'
p5411
tp5412
sS'207.106.89.45'
p5413
(S'          40.72'
p5414
S'         -74.00'
p5415
tp5416
sS'80.87.128.99'
p5417
(S'          51.50'
p5418
S'         -0.17'
p5419
tp5420
sS'67.67.145.189'
p5421
(S'          38.88'
p5422
S'         -77.44'
p5423
tp5424
sS'217.5.62.250'
p5425
(S'          52.35'
p5426
S'         4.90'
p5427
tp5428
sS'24.247.210.146'
p5429
(S'          43.61'
p5430
S'         -83.92'
p5431
tp5432
sS'210.54.132.35'
p5433
(S'          -35.32'
p5434
S'         150.40'
p5435
tp5436
sS'68.18.198.225'
p5437
(S'          33.93'
p5438
S'         -84.33'
p5439
tp5440
sS'68.194.76.198'
p5441
(S'          -25.00'
p5442
S'         135.00'
p5443
tp5444
sS'151.205.209.57'
p5445
(S'          38.94'
p5446
S'         -77.35'
p5447
tp5448
sS'68.116.47.172'
p5449
(S'          38.61'
p5450
S'         -90.44'
p5451
tp5452
sS'67.125.85.156'
p5453
(S'          38.88'
p5454
S'         -77.44'
p5455
tp5456
sS'130.49.78.214'
p5457
(S'          40.52'
p5458
S'         -79.88'
p5459
tp5460
sS'66.52.169.109'
p5461
(S'          37.97'
p5462
S'         -121.32'
p5463
tp5464
sS'68.163.219.234'
p5465
(S'          38.88'
p5466
S'         -77.44'
p5467
tp5468
sS'206.47.151.226'
p5469
(S'          45.50'
p5470
S'         -73.60'
p5471
tp5472
sS'213.96.20.254'
p5473
(S'          40.00'
p5474
S'         -4.00'
p5475
tp5476
sS'217.88.146.87'
p5477
(S'          52.35'
p5478
S'         4.90'
p5479
tp5480
sS'66.222.28.94'
p5481
(S'          43.07'
p5482
S'         -89.51'
p5483
tp5484
sS'212.185.229.221'
p5485
(S'          49.87'
p5486
S'         8.65'
p5487
tp5488
sS'12.211.82.157'
p5489
(S'          40.40'
p5490
S'         -74.11'
p5491
tp5492
sS'63.149.241.34'
p5493
(S'          33.99'
p5494
S'         -118.40'
p5495
tp5496
sS'213.84.137.86'
p5497
(S'          52.35'
p5498
S'         4.90'
p5499
tp5500
sS'202.57.74.114'
p5501
(S'          13.00'
p5502
S'         122.00'
p5503
tp5504
sS'217.120.94.252'
p5505
(S'          52.35'
p5506
S'         4.90'
p5507
tp5508
sS'24.136.200.6'
p5509
(S'          33.80'
p5510
S'         -84.39'
p5511
tp5512
sS'24.49.150.140'
p5513
(S'          41.78'
p5514
S'         -78.00'
p5515
tp5516
sS'208.33.24.100'
p5517
(S'          37.57'
p5518
S'         -122.05'
p5519
tp5520
sS'161.184.64.8'
p5521
(S'          49.27'
p5522
S'         -122.97'
p5523
tp5524
sS'130.15.221.166'
p5525
(S'          44.23'
p5526
S'         -76.50'
p5527
tp5528
sS'202.161.107.54'
p5529
(S'          -37.75'
p5530
S'         144.97'
p5531
tp5532
sS'212.159.34.22'
p5533
(S'          53.38'
p5534
S'         -1.50'
p5535
tp5536
sS'67.85.207.118'
p5537
(S'          38.88'
p5538
S'         -77.44'
p5539
tp5540
sS'68.173.40.195'
p5541
(S'          -25.00'
p5542
S'         135.00'
p5543
tp5544
sS'12.220.65.31'
p5545
(S'          40.86'
p5546
S'         -74.41'
p5547
tp5548
sS'63.175.167.152'
p5549
(S'          38.94'
p5550
S'         -77.35'
p5551
tp5552
sS'128.210.91.110'
p5553
(S'          40.44'
p5554
S'         -86.92'
p5555
tp5556
sS'24.214.130.130'
p5557
(S'          32.83'
p5558
S'         -85.12'
p5559
tp5560
sS'24.57.22.118'
p5561
(S'          49.77'
p5562
S'         -56.00'
p5563
tp5564
sS'68.17.220.11'
p5565
(S'          33.93'
p5566
S'         -84.33'
p5567
tp5568
sS'68.12.63.232'
p5569
(S'          33.94'
p5570
S'         -84.32'
p5571
tp5572
sS'24.157.5.109'
p5573
(S'          43.70'
p5574
S'         -79.42'
p5575
tp5576
sS'209.124.112.214'
p5577
(S'          -25.00'
p5578
S'         135.00'
p5579
tp5580
sS'217.123.212.112'
p5581
(S'          52.35'
p5582
S'         4.90'
p5583
tp5584
sS'129.217.130.44'
p5585
(S'          51.52'
p5586
S'         7.45'
p5587
tp5588
sS'24.63.10.12'
p5589
(S'          38.88'
p5590
S'         -77.44'
p5591
tp5592
sS'80.46.205.3'
p5593
(S'          52.35'
p5594
S'         4.90'
p5595
tp5596
sS'165.123.135.97'
p5597
(S'          39.96'
p5598
S'         -75.20'
p5599
tp5600
sS'217.210.250.95'
p5601
(S'          52.35'
p5602
S'         4.90'
p5603
tp5604
sS'219.185.204.74'
p5605
(S'          -35.32'
p5606
S'         150.40'
p5607
tp5608
sS'203.167.156.135'
p5609
(S'          -35.32'
p5610
S'         150.40'
p5611
tp5612
sS'64.105.28.132'
p5613
(S'          37.35'
p5614
S'         -121.95'
p5615
tp5616
sS'200.92.198.121'
p5617
(S'          -34.92'
p5618
S'         -56.17'
p5619
tp5620
sS'209.91.176.68'
p5621
(S'          46.50'
p5622
S'         -81.02'
p5623
tp5624
sS'81.248.141.6'
p5625
(S'          52.35'
p5626
S'         4.90'
p5627
tp5628
sS'217.44.144.173'
p5629
(S'          52.35'
p5630
S'         4.90'
p5631
tp5632
sS'69.16.125.87'
p5633
(S'          38.88'
p5634
S'         -77.44'
p5635
tp5636
sS'134.173.89.22'
p5637
(S'          34.11'
p5638
S'         -117.72'
p5639
tp5640
sS'203.113.242.81'
p5641
(S'          -35.32'
p5642
S'         150.40'
p5643
tp5644
sS'128.59.115.200'
p5645
(S'          40.80'
p5646
S'         -73.97'
p5647
tp5648
sS'217.88.228.24'
p5649
(S'          52.35'
p5650
S'         4.90'
p5651
tp5652
sS'68.192.65.222'
p5653
(S'          38.88'
p5654
S'         -77.44'
p5655
tp5656
sS'213.10.201.1'
p5657
(S'          52.15'
p5658
S'         5.38'
p5659
tp5660
sS'12.224.153.36'
p5661
(S'          40.40'
p5662
S'         -74.11'
p5663
tp5664
sS'68.159.148.193'
p5665
(S'          -25.00'
p5666
S'         135.00'
p5667
tp5668
sS'80.218.160.110'
p5669
(S'          52.35'
p5670
S'         4.90'
p5671
tp5672
sS'203.167.221.130'
p5673
(S'          -35.32'
p5674
S'         150.40'
p5675
tp5676
sS'203.59.159.42'
p5677
(S'          -35.32'
p5678
S'         150.40'
p5679
tp5680
sS'149.159.38.170'
p5681
(S'          39.18'
p5682
S'         -86.51'
p5683
tp5684
sS'24.162.156.204'
p5685
(S'          38.98'
p5686
S'         -77.39'
p5687
tp5688
sS'65.160.195.34'
p5689
(S'          21.30'
p5690
S'         -157.84'
p5691
tp5692
sS'213.84.192.183'
p5693
(S'          52.35'
p5694
S'         4.90'
p5695
tp5696
sS'24.202.128.128'
p5697
(S'          45.50'
p5698
S'         -73.60'
p5699
tp5700
sS'220.240.68.53'
p5701
(S'          -35.32'
p5702
S'         150.40'
p5703
tp5704
sS'81.62.179.141'
p5705
(S'          52.35'
p5706
S'         4.90'
p5707
tp5708
sS'212.254.138.66'
p5709
(S'          52.35'
p5710
S'         4.90'
p5711
tp5712
sS'80.198.56.62'
p5713
(S'          52.35'
p5714
S'         4.90'
p5715
tp5716
sS'24.161.30.224'
p5717
(S'          38.98'
p5718
S'         -77.39'
p5719
tp5720
sS'12.210.180.244'
p5721
(S'          40.40'
p5722
S'         -74.11'
p5723
tp5724
sS'81.107.92.173'
p5725
(S'          52.35'
p5726
S'         4.90'
p5727
tp5728
sS'129.100.204.218'
p5729
(S'          42.97'
p5730
S'         -81.25'
p5731
tp5732
sS'212.185.231.215'
p5733
(S'          52.35'
p5734
S'         4.90'
p5735
tp5736
sS'141.158.182.97'
p5737
(S'          38.94'
p5738
S'         -77.35'
p5739
tp5740
sS'81.152.213.58'
p5741
(S'          52.35'
p5742
S'         4.90'
p5743
tp5744
sS'24.81.201.175'
p5745
(S'          51.08'
p5746
S'         -114.08'
p5747
tp5748
sS'217.71.230.212'
p5749
(S'          54.00'
p5750
S'         -4.50'
p5751
tp5752
sS'68.158.149.84'
p5753
(S'          38.88'
p5754
S'         -77.44'
p5755
tp5756
sS'200.28.227.183'
p5757
(S'          -33.40'
p5758
S'         -70.60'
p5759
tp5760
sS'68.186.196.2'
p5761
(S'          -25.00'
p5762
S'         135.00'
p5763
tp5764
sS'66.74.85.6'
p5765
(S'          38.98'
p5766
S'         -77.39'
p5767
tp5768
sS'68.38.177.39'
p5769
(S'          40.60'
p5770
S'         -74.45'
p5771
tp5772
sS'67.100.39.74'
p5773
(S'          38.88'
p5774
S'         -77.44'
p5775
tp5776
sS'24.150.142.159'
p5777
(S'          49.77'
p5778
S'         -56.00'
p5779
tp5780
sS'195.241.151.71'
p5781
(S'          52.00'
p5782
S'         5.08'
p5783
tp5784
sS'65.71.168.147'
p5785
(S'          33.03'
p5786
S'         -96.74'
p5787
tp5788
sS'134.84.116.9'
p5789
(S'          38.88'
p5790
S'         -77.44'
p5791
tp5792
sS'194.19.239.66'
p5793
(S'          56.88'
p5794
S'         24.13'
p5795
tp5796
sS'65.33.140.230'
p5797
(S'          38.98'
p5798
S'         -77.39'
p5799
tp5800
sS'67.122.32.3'
p5801
(S'          37.79'
p5802
S'         -122.40'
p5803
tp5804
sS'152.15.95.228'
p5805
(S'          35.23'
p5806
S'         -80.84'
p5807
tp5808
sS'67.23.155.87'
p5809
(S'          38.88'
p5810
S'         -77.44'
p5811
tp5812
sS'66.188.40.81'
p5813
(S'          43.61'
p5814
S'         -83.92'
p5815
tp5816
sS'80.126.153.32'
p5817
(S'          52.35'
p5818
S'         4.90'
p5819
tp5820
sS'80.116.115.65'
p5821
(S'          52.35'
p5822
S'         4.90'
p5823
tp5824
sS'212.195.184.212'
p5825
(S'          52.35'
p5826
S'         4.90'
p5827
tp5828
sS'171.75.84.147'
p5829
(S'          42.48'
p5830
S'         -71.16'
p5831
tp5832
sS'24.102.128.199'
p5833
(S'          43.70'
p5834
S'         -79.42'
p5835
tp5836
sS'65.134.172.82'
p5837
(S'          39.75'
p5838
S'         -104.99'
p5839
tp5840
sS'24.26.184.170'
p5841
(S'          38.98'
p5842
S'         -77.39'
p5843
tp5844
sS'24.54.37.3'
p5845
(S'          41.78'
p5846
S'         -78.00'
p5847
tp5848
sS'162.34.230.2'
p5849
(S'          38.91'
p5850
S'         -90.16'
p5851
tp5852
sS'68.64.168.88'
p5853
(S'          41.78'
p5854
S'         -78.00'
p5855
tp5856
sS'24.202.234.111'
p5857
(S'          45.50'
p5858
S'         -73.60'
p5859
tp5860
sS'213.114.221.245'
p5861
(S'          52.35'
p5862
S'         4.90'
p5863
tp5864
sS'209.175.13.40'
p5865
(S'          39.80'
p5866
S'         -89.65'
p5867
tp5868
sS'12.212.68.80'
p5869
(S'          40.40'
p5870
S'         -74.11'
p5871
tp5872
sS'24.107.142.20'
p5873
(S'          38.88'
p5874
S'         -77.44'
p5875
tp5876
sS'216.229.94.142'
p5877
(S'          39.32'
p5878
S'         -92.38'
p5879
tp5880
sS'140.233.208.22'
p5881
(S'          44.15'
p5882
S'         -73.07'
p5883
tp5884
sS'157.242.112.116'
p5885
(S'          33.96'
p5886
S'         -118.39'
p5887
tp5888
sS'200.35.124.96'
p5889
(S'          10.23'
p5890
S'         -64.67'
p5891
tp5892
sS'152.7.66.63'
p5893
(S'          35.77'
p5894
S'         -78.63'
p5895
tp5896
sS'128.175.131.95'
p5897
(S'          39.63'
p5898
S'         -75.70'
p5899
tp5900
sS'141.151.39.78'
p5901
(S'          38.94'
p5902
S'         -77.35'
p5903
tp5904
sS'24.77.16.254'
p5905
(S'          51.08'
p5906
S'         -114.08'
p5907
tp5908
sS'130.212.158.84'
p5909
(S'          37.72'
p5910
S'         -122.48'
p5911
tp5912
sS'67.22.47.161'
p5913
(S'          -25.00'
p5914
S'         135.00'
p5915
tp5916
sS'212.55.255.41'
p5917
(S'          52.35'
p5918
S'         4.90'
p5919
tp5920
sS'68.195.10.201'
p5921
(S'          -25.00'
p5922
S'         135.00'
p5923
tp5924
sS'200.67.134.163'
p5925
(S'          -25.00'
p5926
S'         135.00'
p5927
tp5928
sS'137.28.245.250'
p5929
(S'          44.78'
p5930
S'         -91.49'
p5931
tp5932
sS'208.37.196.176'
p5933
(S'          37.32'
p5934
S'         -121.92'
p5935
tp5936
sS'198.30.138.61'
p5937
(S'          40.02'
p5938
S'         -83.06'
p5939
tp5940
sS'63.246.190.188'
p5941
(S'          -25.00'
p5942
S'         135.00'
p5943
tp5944
sS'80.199.9.233'
p5945
(S'          52.35'
p5946
S'         4.90'
p5947
tp5948
sS'62.163.224.126'
p5949
(S'          52.35'
p5950
S'         4.90'
p5951
tp5952
sS'24.208.236.241'
p5953
(S'          38.98'
p5954
S'         -77.39'
p5955
tp5956
sS'68.81.9.209'
p5957
(S'          39.93'
p5958
S'         -75.02'
p5959
tp5960
sS'218.218.60.45'
p5961
(S'          -35.32'
p5962
S'         150.40'
p5963
tp5964
sS'12.236.216.126'
p5965
(S'          40.86'
p5966
S'         -74.41'
p5967
tp5968
sS'24.186.8.196'
p5969
(S'          40.82'
p5970
S'         -73.47'
p5971
tp5972
sS'202.0.45.137'
p5973
(S'          -35.32'
p5974
S'         150.40'
p5975
tp5976
sS'24.222.160.198'
p5977
(S'          44.63'
p5978
S'         -63.58'
p5979
tp5980
sS'198.246.6.103'
p5981
(S'          38.59'
p5982
S'         -90.35'
p5983
tp5984
sS'66.157.102.120'
p5985
(S'          33.93'
p5986
S'         -84.33'
p5987
tp5988
sS'192.160.216.56'
p5989
(S'          34.00'
p5990
S'         -118.04'
p5991
tp5992
sS'63.231.51.101'
p5993
(S'          45.00'
p5994
S'         -93.26'
p5995
tp5996
sS'68.98.239.180'
p5997
(S'          36.18'
p5998
S'         -115.16'
p5999
tp6000
sS'200.149.184.2'
p6001
(S'          -34.92'
p6002
S'         -56.17'
p6003
tp6004
sS'68.60.47.241'
p6005
(S'          39.93'
p6006
S'         -75.02'
p6007
tp6008
sS'64.171.185.104'
p6009
(S'          37.79'
p6010
S'         -122.40'
p6011
tp6012
sS'134.48.216.97'
p6013
(S'          43.05'
p6014
S'         -87.90'
p6015
tp6016
sS'217.44.58.38'
p6017
(S'          52.35'
p6018
S'         4.90'
p6019
tp6020
sS'142.58.133.25'
p6021
(S'          49.27'
p6022
S'         -122.97'
p6023
tp6024
sS'213.3.49.64'
p6025
(S'          52.35'
p6026
S'         4.90'
p6027
tp6028
sS'131.128.139.33'
p6029
(S'          41.48'
p6030
S'         -71.53'
p6031
tp6032
sS'66.108.63.185'
p6033
(S'          38.98'
p6034
S'         -77.39'
p6035
tp6036
sS'64.251.82.193'
p6037
(S'          51.08'
p6038
S'         -114.08'
p6039
tp6040
sS'64.231.158.223'
p6041
(S'          46.50'
p6042
S'         -81.02'
p6043
tp6044
sS'80.131.91.59'
p6045
(S'          52.35'
p6046
S'         4.90'
p6047
tp6048
sS'68.173.221.8'
p6049
(S'          -25.00'
p6050
S'         135.00'
p6051
tp6052
sS'66.245.115.9'
p6053
(S'          34.15'
p6054
S'         -118.09'
p6055
tp6056
sS'81.66.182.15'
p6057
(S'          52.35'
p6058
S'         4.90'
p6059
tp6060
sS'217.97.202.40'
p6061
(S'          50.05'
p6062
S'         19.92'
p6063
tp6064
sS'67.10.57.127'
p6065
(S'          38.98'
p6066
S'         -77.39'
p6067
tp6068
sS'24.107.46.59'
p6069
(S'          46.50'
p6070
S'         -87.58'
p6071
tp6072
sS'24.82.43.142'
p6073
(S'          51.08'
p6074
S'         -114.08'
p6075
tp6076
sS'67.165.242.133'
p6077
(S'          -25.00'
p6078
S'         135.00'
p6079
tp6080
sS'67.86.211.15'
p6081
(S'          -25.00'
p6082
S'         135.00'
p6083
tp6084
sS'67.168.82.4'
p6085
(S'          -25.00'
p6086
S'         135.00'
p6087
tp6088
sS'68.83.206.150'
p6089
(S'          39.93'
p6090
S'         -75.02'
p6091
tp6092
sS'81.164.252.198'
p6093
(S'          52.35'
p6094
S'          4.90'
p6095
tp6096
sS'68.122.34.0'
p6097
(S'          38.88'
p6098
S'         -77.44'
p6099
tp6100
sS'64.32.130.43'
p6101
(S'          41.60'
p6102
S'         -81.47'
p6103
tp6104
sS'202.158.42.22'
p6105
(S'          -6.13'
p6106
S'         106.75'
p6107
tp6108
sS'81.56.160.83'
p6109
(S'          52.35'
p6110
S'         4.90'
p6111
tp6112
sS'82.43.32.131'
p6113
(S'          33.98'
p6114
S'         -118.45'
p6115
tp6116
sS'65.28.199.182'
p6117
(S'          38.98'
p6118
S'         -77.39'
p6119
tp6120
sS'128.196.196.36'
p6121
(S'          32.21'
p6122
S'         -110.97'
p6123
tp6124
sS'12.211.25.175'
p6125
(S'          40.40'
p6126
S'         -74.11'
p6127
tp6128
sS'65.173.81.139'
p6129
(S'          28.60'
p6130
S'         -81.35'
p6131
tp6132
sS'209.181.58.225'
p6133
(S'          39.75'
p6134
S'         -104.99'
p6135
tp6136
sS'129.170.246.51'
p6137
(S'          43.70'
p6138
S'         -72.28'
p6139
tp6140
sS'217.209.56.174'
p6141
(S'          52.35'
p6142
S'         4.90'
p6143
tp6144
sS'209.184.108.100'
p6145
(S'          33.03'
p6146
S'         -96.74'
p6147
tp6148
sS'66.108.17.239'
p6149
(S'          38.98'
p6150
S'         -77.39'
p6151
tp6152
sS'80.15.159.205'
p6153
(S'          -21.10'
p6154
S'         55.60'
p6155
tp6156
sS'172.193.73.117'
p6157
(S'          38.93'
p6158
S'         -77.26'
p6159
tp6160
sS'81.67.116.193'
p6161
(S'          52.35'
p6162
S'         4.90'
p6163
tp6164
sS'155.68.77.205'
p6165
(S'          40.03'
p6166
S'         -76.28'
p6167
tp6168
sS'62.57.92.229'
p6169
(S'          52.35'
p6170
S'         4.90'
p6171
tp6172
sS'82.64.208.233'
p6173
(S'          33.98'
p6174
S'         -118.45'
p6175
tp6176
sS'198.199.133.99'
p6177
(S'          38.00'
p6178
S'         -98.00'
p6179
tp6180
sS'24.54.44.150'
p6181
(S'          41.78'
p6182
S'         -78.00'
p6183
tp6184
sS'217.96.226.149'
p6185
(S'          52.25'
p6186
S'         21.00'
p6187
tp6188
sS'141.151.184.142'
p6189
(S'          38.94'
p6190
S'         -77.35'
p6191
tp6192
sS'65.66.237.199'
p6193
(S'          33.03'
p6194
S'         -96.74'
p6195
tp6196
sS'142.151.168.196'
p6197
(S'          43.70'
p6198
S'         -79.42'
p6199
tp6200
sS'62.205.71.232'
p6201
(S'          52.35'
p6202
S'         4.90'
p6203
tp6204
sS'68.70.202.189'
p6205
(S'          41.78'
p6206
S'         -78.00'
p6207
tp6208
sS'131.128.143.233'
p6209
(S'          41.48'
p6210
S'         -71.53'
p6211
tp6212
sS'81.128.172.34'
p6213
(S'          52.35'
p6214
S'         4.90'
p6215
tp6216
sS'66.245.73.205'
p6217
(S'          34.15'
p6218
S'         -118.09'
p6219
tp6220
sS'62.131.62.19'
p6221
(S'          52.35'
p6222
S'         4.90'
p6223
tp6224
sS'132.162.236.144'
p6225
(S'          41.29'
p6226
S'         -82.22'
p6227
tp6228
sS'128.2.67.155'
p6229
(S'          40.44'
p6230
S'         -79.95'
p6231
tp6232
sS'203.33.166.52'
p6233
(S'          -35.32'
p6234
S'         150.40'
p6235
tp6236
sS'67.121.234.53'
p6237
(S'          37.79'
p6238
S'         -122.40'
p6239
tp6240
sS'200.104.187.232'
p6241
(S'          -25.00'
p6242
S'         135.00'
p6243
tp6244
sS'80.4.125.4'
p6245
(S'          52.35'
p6246
S'         4.90'
p6247
tp6248
sS'213.112.73.112'
p6249
(S'          52.35'
p6250
S'         4.90'
p6251
tp6252
sS'141.108.6.117'
p6253
(S'          44.50'
p6254
S'         11.33'
p6255
tp6256
sS'82.65.138.233'
p6257
(S'          33.98'
p6258
S'         -118.45'
p6259
tp6260
sS'203.58.18.35'
p6261
(S'          -33.80'
p6262
S'         151.12'
p6263
tp6264
sS'158.64.52.194'
p6265
(S'          49.62'
p6266
S'         6.13'
p6267
tp6268
sS'68.194.67.117'
p6269
(S'          38.88'
p6270
S'         -77.44'
p6271
tp6272
sS'213.114.84.83'
p6273
(S'          52.35'
p6274
S'         4.90'
p6275
tp6276
sS'204.210.143.179'
p6277
(S'          38.98'
p6278
S'         -77.39'
p6279
tp6280
sS'68.107.128.210'
p6281
(S'          33.87'
p6282
S'         -84.34'
p6283
tp6284
sS'192.195.154.107'
p6285
(S'          32.76'
p6286
S'         -117.20'
p6287
tp6288
sS'12.175.225.20'
p6289
(S'          40.40'
p6290
S'         -74.11'
p6291
tp6292
sS'152.15.230.40'
p6293
(S'          35.23'
p6294
S'         -80.84'
p6295
tp6296
sS'164.76.181.230'
p6297
(S'          42.23'
p6298
S'         -83.63'
p6299
tp6300
sS'66.222.30.84'
p6301
(S'          43.07'
p6302
S'         -89.51'
p6303
tp6304
sS'128.151.143.183'
p6305
(S'          43.08'
p6306
S'         -77.63'
p6307
tp6308
sS'80.25.73.107'
p6309
(S'          52.35'
p6310
S'         4.90'
p6311
tp6312
sS'203.164.34.159'
p6313
(S'          -25.00'
p6314
S'         135.00'
p6315
tp6316
sS'138.49.152.193'
p6317
(S'          43.80'
p6318
S'         -91.22'
p6319
tp6320
sS'80.218.201.59'
p6321
(S'          52.35'
p6322
S'         4.90'
p6323
tp6324
sS'64.161.176.190'
p6325
(S'          37.76'
p6326
S'         -122.40'
p6327
tp6328
sS'64.212.200.129'
p6329
(S'          37.40'
p6330
S'         -122.00'
p6331
tp6332
sS'200.63.208.68'
p6333
(S'          -25.00'
p6334
S'         135.00'
p6335
tp6336
sS'203.113.249.222'
p6337
(S'          -35.32'
p6338
S'         150.40'
p6339
tp6340
sS'128.208.86.95'
p6341
(S'          47.66'
p6342
S'         -122.30'
p6343
tp6344
sS'132.161.139.156'
p6345
(S'          41.74'
p6346
S'         -92.73'
p6347
tp6348
sS'152.15.95.199'
p6349
(S'          35.23'
p6350
S'         -80.84'
p6351
tp6352
sS'66.57.130.30'
p6353
(S'          38.98'
p6354
S'         -77.39'
p6355
tp6356
sS'213.54.173.192'
p6357
(S'          52.35'
p6358
S'         4.90'
p6359
tp6360
sS'61.123.107.204'
p6361
(S'          -35.32'
p6362
S'         150.40'
p6363
tp6364
sS'213.54.25.121'
p6365
(S'          52.35'
p6366
S'         4.90'
p6367
tp6368
sS'12.164.57.198'
p6369
(S'          26.11'
p6370
S'         -80.37'
p6371
tp6372
sS'172.137.204.216'
p6373
(S'          38.94'
p6374
S'         -77.35'
p6375
tp6376
sS'65.38.218.32'
p6377
(S'          18.42'
p6378
S'         -66.05'
p6379
tp6380
sS'80.15.120.122'
p6381
(S'          48.82'
p6382
S'         2.27'
p6383
tp6384
sS'12.212.214.65'
p6385
(S'          40.40'
p6386
S'         -74.11'
p6387
tp6388
sS'140.190.122.176'
p6389
(S'          44.04'
p6390
S'         -91.65'
p6391
tp6392
sS'24.237.90.189'
p6393
(S'          61.19'
p6394
S'         -149.89'
p6395
tp6396
sS'66.69.222.91'
p6397
(S'          38.98'
p6398
S'         -77.39'
p6399
tp6400
sS'68.116.100.143'
p6401
(S'          38.61'
p6402
S'         -90.44'
p6403
tp6404
sS'62.58.32.75'
p6405
(S'          52.35'
p6406
S'         4.90'
p6407
tp6408
sS'212.123.142.156'
p6409
(S'          52.35'
p6410
S'         4.90'
p6411
tp6412
sS'81.51.116.92'
p6413
(S'          52.35'
p6414
S'         4.90'
p6415
tp6416
sS'66.98.51.41'
p6417
(S'          19.00'
p6418
S'         -70.67'
p6419
tp6420
sS'65.78.11.150'
p6421
(S'          40.37'
p6422
S'         -74.64'
p6423
tp6424
sS'213.46.88.217'
p6425
(S'          52.35'
p6426
S'         4.90'
p6427
tp6428
sS'66.67.12.12'
p6429
(S'          38.98'
p6430
S'         -77.39'
p6431
tp6432
sS'12.223.175.153'
p6433
(S'          40.86'
p6434
S'         -74.41'
p6435
tp6436
sS'219.3.154.7'
p6437
(S'          -35.32'
p6438
S'         150.40'
p6439
tp6440
sS'24.159.218.53'
p6441
(S'          38.61'
p6442
S'         -90.44'
p6443
tp6444
sS'24.49.5.214'
p6445
(S'          41.78'
p6446
S'         -78.00'
p6447
tp6448
sS'141.213.220.214'
p6449
(S'          42.29'
p6450
S'         -83.72'
p6451
tp6452
sS'203.217.69.17'
p6453
(S'          -35.32'
p6454
S'         150.40'
p6455
tp6456
sS'67.21.85.149'
p6457
(S'          -25.00'
p6458
S'         135.00'
p6459
tp6460
sS'202.156.88.56'
p6461
(S'          -35.32'
p6462
S'         150.40'
p6463
tp6464
sS'62.163.68.43'
p6465
(S'          52.35'
p6466
S'         4.90'
p6467
tp6468
sS'220.46.8.24'
p6469
(S'          -35.32'
p6470
S'         150.40'
p6471
tp6472
sS'80.165.138.206'
p6473
(S'          52.35'
p6474
S'         4.90'
p6475
tp6476
sS'24.127.18.33'
p6477
(S'          42.59'
p6478
S'         -71.36'
p6479
tp6480
sS'213.54.151.154'
p6481
(S'          52.35'
p6482
S'         4.90'
p6483
tp6484
sS'64.213.217.215'
p6485
(S'          44.04'
p6486
S'         -91.65'
p6487
tp6488
sS'68.65.188.93'
p6489
(S'          41.78'
p6490
S'         -78.00'
p6491
tp6492
sS'217.121.54.146'
p6493
(S'          52.35'
p6494
S'         4.90'
p6495
tp6496
sS'137.120.227.252'
p6497
(S'          50.85'
p6498
S'         5.70'
p6499
tp6500
sS'68.9.217.223'
p6501
(S'          33.87'
p6502
S'         -84.34'
p6503
tp6504
sS'24.59.73.154'
p6505
(S'          38.98'
p6506
S'         -77.39'
p6507
tp6508
sS'67.160.95.238'
p6509
(S'          -25.00'
p6510
S'         135.00'
p6511
tp6512
sS'82.42.82.58'
p6513
(S'          33.98'
p6514
S'         -118.45'
p6515
tp6516
sS'81.6.36.202'
p6517
(S'          52.35'
p6518
S'         4.90'
p6519
tp6520
sS'203.19.127.27'
p6521
(S'          -35.32'
p6522
S'         150.40'
p6523
tp6524
sS'217.44.180.228'
p6525
(S'          52.35'
p6526
S'         4.90'
p6527
tp6528
sS'12.221.67.96'
p6529
(S'          40.40'
p6530
S'         -74.11'
p6531
tp6532
sS'65.60.133.125'
p6533
(S'          -25.00'
p6534
S'         135.00'
p6535
tp6536
sS'81.168.52.194'
p6537
(S'          52.35'
p6538
S'         4.90'
p6539
tp6540
sS'68.74.133.187'
p6541
(S'          -25.00'
p6542
S'         135.00'
p6543
tp6544
sS'24.243.38.60'
p6545
(S'          38.98'
p6546
S'         -77.39'
p6547
tp6548
sS'200.84.193.1'
p6549
(S'          -34.92'
p6550
S'         -56.17'
p6551
tp6552
sS'62.101.126.205'
p6553
(S'          52.35'
p6554
S'         4.90'
p6555
tp6556
sS'200.104.26.214'
p6557
(S'          -25.00'
p6558
S'         135.00'
p6559
tp6560
sS'24.74.233.19'
p6561
(S'          38.98'
p6562
S'         -77.39'
p6563
tp6564
sS'24.222.152.241'
p6565
(S'          44.63'
p6566
S'         -63.58'
p6567
tp6568
sS'12.206.205.49'
p6569
(S'          40.40'
p6570
S'         -74.11'
p6571
tp6572
sS'68.144.152.25'
p6573
(S'          51.08'
p6574
S'         -114.08'
p6575
tp6576
sS'203.219.155.186'
p6577
(S'          -35.32'
p6578
S'         150.40'
p6579
tp6580
sS'213.234.126.130'
p6581
(S'          52.35'
p6582
S'         4.90'
p6583
tp6584
sS'80.217.183.211'
p6585
(S'          52.35'
p6586
S'         4.90'
p6587
tp6588
sS'24.201.199.157'
p6589
(S'          45.50'
p6590
S'         -73.60'
p6591
tp6592
sS'199.111.70.187'
p6593
(S'          38.05'
p6594
S'         -78.49'
p6595
tp6596
sS'213.243.148.235'
p6597
(S'          60.13'
p6598
S'         25.00'
p6599
tp6600
sS'64.35.205.124'
p6601
(S'          43.22'
p6602
S'         -71.70'
p6603
tp6604
sS'62.245.160.240'
p6605
(S'          48.13'
p6606
S'         11.58'
p6607
tp6608
sS'81.134.193.45'
p6609
(S'          52.35'
p6610
S'         4.90'
p6611
tp6612
sS'168.234.203.9'
p6613
(S'          15.50'
p6614
S'         -90.25'
p6615
tp6616
sS'80.213.119.241'
p6617
(S'          52.35'
p6618
S'         4.90'
p6619
tp6620
sS'216.139.191.38'
p6621
(S'          33.64'
p6622
S'         -84.26'
p6623
tp6624
sS'24.132.42.145'
p6625
(S'          52.35'
p6626
S'         4.90'
p6627
tp6628
sS'146.151.62.129'
p6629
(S'          43.08'
p6630
S'         -89.41'
p6631
tp6632
sS'219.117.65.40'
p6633
(S'          -35.32'
p6634
S'         150.40'
p6635
tp6636
sS'168.122.234.104'
p6637
(S'          42.35'
p6638
S'         -71.10'
p6639
tp6640
sS'81.152.240.35'
p6641
(S'          52.35'
p6642
S'         4.90'
p6643
tp6644
sS'203.167.145.187'
p6645
(S'          -35.32'
p6646
S'         150.40'
p6647
tp6648
sS'81.86.251.146'
p6649
(S'          52.35'
p6650
S'         4.90'
p6651
tp6652
sS'24.74.145.145'
p6653
(S'          38.98'
p6654
S'         -77.39'
p6655
tp6656
sS'138.234.66.49'
p6657
(S'          39.83'
p6658
S'         -77.22'
p6659
tp6660
sS'24.218.166.203'
p6661
(S'          42.59'
p6662
S'         -71.36'
p6663
tp6664
sS'65.27.237.183'
p6665
(S'          38.98'
p6666
S'         -77.39'
p6667
tp6668
sS'67.164.196.134'
p6669
(S'          -25.00'
p6670
S'         135.00'
p6671
tp6672
sS'150.162.27.60'
p6673
(S'          -27.00'
p6674
S'         -50.00'
p6675
tp6676
sS'137.99.166.54'
p6677
(S'          41.81'
p6678
S'         -72.26'
p6679
tp6680
sS'66.245.150.43'
p6681
(S'          34.15'
p6682
S'         -118.09'
p6683
tp6684
sS'149.159.54.224'
p6685
(S'          39.18'
p6686
S'         -86.51'
p6687
tp6688
sS'68.164.74.113'
p6689
(S'          38.88'
p6690
S'         -77.44'
p6691
tp6692
sS'158.83.141.95'
p6693
(S'          40.06'
p6694
S'         -79.90'
p6695
tp6696
sS'68.168.185.87'
p6697
(S'          -25.00'
p6698
S'         135.00'
p6699
tp6700
sS'68.90.231.41'
p6701
(S'          -25.00'
p6702
S'         135.00'
p6703
tp6704
sS'200.96.69.144'
p6705
(S'          -34.92'
p6706
S'         -56.17'
p6707
tp6708
sS'67.167.108.214'
p6709
(S'          -25.00'
p6710
S'         135.00'
p6711
tp6712
sS'24.229.100.201'
p6713
(S'          40.82'
p6714
S'         -75.60'
p6715
tp6716
sS'81.152.195.176'
p6717
(S'          52.35'
p6718
S'         4.90'
p6719
tp6720
sS'4.62.125.122'
p6721
(S'          42.38'
p6722
S'         -71.13'
p6723
tp6724
sS'67.64.199.25'
p6725
(S'          33.03'
p6726
S'         -96.74'
p6727
tp6728
sS'24.61.84.148'
p6729
(S'          42.59'
p6730
S'         -71.36'
p6731
tp6732
sS'134.2.176.177'
p6733
(S'          48.53'
p6734
S'         9.05'
p6735
tp6736
sS'207.235.92.3'
p6737
(S'          30.04'
p6738
S'         -99.14'
p6739
tp6740
sS'62.131.74.168'
p6741
(S'          52.35'
p6742
S'         4.90'
p6743
tp6744
sS'152.7.25.158'
p6745
(S'          35.77'
p6746
S'         -78.63'
p6747
tp6748
sS'200.151.54.145'
p6749
(S'          -34.92'
p6750
S'         -56.17'
p6751
tp6752
sS'81.64.197.90'
p6753
(S'          52.35'
p6754
S'         4.90'
p6755
tp6756
sS'200.203.75.1'
p6757
(S'          -34.92'
p6758
S'         -56.17'
p6759
tp6760
sS'81.53.179.244'
p6761
(S'          52.35'
p6762
S'         4.90'
p6763
tp6764
sS'152.15.95.184'
p6765
(S'          35.23'
p6766
S'         -80.84'
p6767
tp6768
sS'66.123.244.205'
p6769
(S'          37.76'
p6770
S'         -122.40'
p6771
tp6772
sS'217.236.13.5'
p6773
(S'          52.35'
p6774
S'         4.90'
p6775
tp6776
sS'217.231.185.103'
p6777
(S'          52.35'
p6778
S'         4.90'
p6779
tp6780
sS'80.180.212.253'
p6781
(S'          52.35'
p6782
S'         4.90'
p6783
tp6784
sS'66.66.35.32'
p6785
(S'          38.98'
p6786
S'         -77.39'
p6787
tp6788
sS'209.86.131.135'
p6789
(S'          34.15'
p6790
S'         -118.09'
p6791
tp6792
sS'12.233.186.85'
p6793
(S'          40.40'
p6794
S'         -74.11'
p6795
tp6796
sS'66.47.156.187'
p6797
(S'          33.80'
p6798
S'         -84.39'
p6799
tp6800
sS'81.86.249.133'
p6801
(S'          52.35'
p6802
S'         4.90'
p6803
tp6804
sS'63.203.75.66'
p6805
(S'          37.79'
p6806
S'         -122.40'
p6807
tp6808
sS'67.85.179.230'
p6809
(S'          38.88'
p6810
S'         -77.44'
p6811
tp6812
sS'24.199.121.145'
p6813
(S'          33.80'
p6814
S'         -84.39'
p6815
tp6816
sS'129.63.62.58'
p6817
(S'          42.65'
p6818
S'         -71.34'
p6819
tp6820
sS'146.145.4.29'
p6821
(S'          40.01'
p6822
S'         -75.23'
p6823
tp6824
sS'66.36.133.36'
p6825
(S'          45.50'
p6826
S'         -73.60'
p6827
tp6828
sS'67.68.99.108'
p6829
(S'          43.70'
p6830
S'         -79.42'
p6831
tp6832
sS'200.232.209.132'
p6833
(S'          -34.92'
p6834
S'         -56.17'
p6835
tp6836
sS'80.224.102.128'
p6837
(S'          52.35'
p6838
S'         4.90'
p6839
tp6840
sS'129.173.180.136'
p6841
(S'          44.63'
p6842
S'         -63.58'
p6843
tp6844
sS'163.120.194.62'
p6845
(S'          39.65'
p6846
S'         -86.87'
p6847
tp6848
sS'12.210.187.177'
p6849
(S'          40.86'
p6850
S'         -74.41'
p6851
tp6852
sS'24.162.90.10'
p6853
(S'          38.98'
p6854
S'         -77.39'
p6855
tp6856
sS'80.11.35.228'
p6857
(S'          47.38'
p6858
S'         0.70'
p6859
tp6860
sS'216.244.6.46'
p6861
(S'          34.15'
p6862
S'         -118.09'
p6863
tp6864
sS'152.117.225.63'
p6865
(S'          47.25'
p6866
S'         -122.44'
p6867
tp6868
sS'67.22.35.114'
p6869
(S'          38.88'
p6870
S'         -77.44'
p6871
tp6872
sS'69.17.160.105'
p6873
(S'          -25.00'
p6874
S'         135.00'
p6875
tp6876
sS'138.89.190.87'
p6877
(S'          38.94'
p6878
S'         -77.35'
p6879
tp6880
sS'66.157.248.24'
p6881
(S'          33.93'
p6882
S'         -84.33'
p6883
tp6884
sS'68.165.61.188'
p6885
(S'          38.88'
p6886
S'         -77.44'
p6887
tp6888
sS'64.121.33.226'
p6889
(S'          40.37'
p6890
S'         -74.64'
p6891
tp6892
sS'129.100.212.62'
p6893
(S'          42.97'
p6894
S'         -81.25'
p6895
tp6896
sS'144.13.224.222'
p6897
(S'          44.87'
p6898
S'         -91.93'
p6899
tp6900
sS'66.158.163.100'
p6901
(S'          39.90'
p6902
S'         -86.02'
p6903
tp6904
sS'217.128.62.151'
p6905
(S'          43.70'
p6906
S'         7.27'
p6907
tp6908
sS'213.106.3.58'
p6909
(S'          52.35'
p6910
S'         4.90'
p6911
tp6912
sS'64.39.172.4'
p6913
(S'          43.45'
p6914
S'         -80.50'
p6915
tp6916
sS'216.176.148.234'
p6917
(S'          41.32'
p6918
S'         -87.21'
p6919
tp6920
sS'200.65.195.27'
p6921
(S'          -34.92'
p6922
S'         -56.17'
p6923
tp6924
sS'81.59.28.70'
p6925
(S'          52.35'
p6926
S'         4.90'
p6927
tp6928
sS'128.230.169.202'
p6929
(S'          43.04'
p6930
S'         -76.15'
p6931
tp6932
sS'67.69.186.251'
p6933
(S'          43.70'
p6934
S'         -79.42'
p6935
tp6936
sS'128.230.220.228'
p6937
(S'          43.04'
p6938
S'         -76.15'
p6939
tp6940
sS'196.33.88.31'
p6941
(S'          -30.00'
p6942
S'         26.00'
p6943
tp6944
sS'137.120.254.245'
p6945
(S'          50.85'
p6946
S'         5.70'
p6947
tp6948
sS'64.215.157.10'
p6949
(S'          34.04'
p6950
S'         -118.43'
p6951
tp6952
sS'66.156.82.9'
p6953
(S'          33.93'
p6954
S'         -84.33'
p6955
tp6956
sS'81.64.129.2'
p6957
(S'          52.35'
p6958
S'         4.90'
p6959
tp6960
sS'131.128.147.252'
p6961
(S'          41.48'
p6962
S'         -71.53'
p6963
tp6964
sS'24.203.99.26'
p6965
(S'          45.50'
p6966
S'         -73.60'
p6967
tp6968
sS'206.116.218.152'
p6969
(S'          45.50'
p6970
S'         -73.60'
p6971
tp6972
sS'80.177.6.108'
p6973
(S'          52.35'
p6974
S'         4.90'
p6975
tp6976
sS'212.158.205.70'
p6977
(S'          52.35'
p6978
S'         4.90'
p6979
tp6980
sS'212.244.173.65'
p6981
(S'          52.00'
p6982
S'         20.00'
p6983
tp6984
sS'141.150.183.161'
p6985
(S'          38.94'
p6986
S'         -77.35'
p6987
tp6988
sS'64.251.80.170'
p6989
(S'          51.08'
p6990
S'         -114.08'
p6991
tp6992
sS'212.129.152.55'
p6993
(S'          52.35'
p6994
S'         4.90'
p6995
tp6996
sS'210.50.113.69'
p6997
(S'          -33.92'
p6998
S'         151.17'
p6999
tp7000
sS'66.47.234.125'
p7001
(S'          34.15'
p7002
S'         -118.09'
p7003
tp7004
sS'217.81.72.74'
p7005
(S'          52.35'
p7006
S'         4.90'
p7007
tp7008
sS'147.129.152.159'
p7009
(S'          42.45'
p7010
S'         -76.49'
p7011
tp7012
sS'217.231.136.107'
p7013
(S'          52.35'
p7014
S'         4.90'
p7015
tp7016
sS'217.123.246.17'
p7017
(S'          52.35'
p7018
S'         4.90'
p7019
tp7020
sS'195.144.82.132'
p7021
(S'          52.35'
p7022
S'         4.90'
p7023
tp7024
sS'24.61.110.182'
p7025
(S'          42.59'
p7026
S'         -71.36'
p7027
tp7028
sS'218.186.96.199'
p7029
(S'          -35.32'
p7030
S'         150.40'
p7031
tp7032
sS'62.49.24.199'
p7033
(S'          51.50'
p7034
S'         -0.17'
p7035
tp7036
sS'82.82.59.170'
p7037
(S'          33.98'
p7038
S'         -118.45'
p7039
tp7040
sS'212.58.186.167'
p7041
(S'          52.35'
p7042
S'         4.90'
p7043
tp7044
sS'69.3.79.253'
p7045
(S'          37.35'
p7046
S'         -121.95'
p7047
tp7048
sS'217.210.161.251'
p7049
(S'          59.33'
p7050
S'         18.08'
p7051
tp7052
sS'24.223.157.237'
p7053
(S'          -35.32'
p7054
S'         150.40'
p7055
tp7056
sS'213.222.171.228'
p7057
(S'          52.35'
p7058
S'         4.90'
p7059
tp7060
sS'147.4.247.19'
p7061
(S'          40.70'
p7062
S'         -73.62'
p7063
tp7064
s.